 0x000000000000000e (SONAME)             Library soname: [libpureG4.so]
_Z20_txnal_cow_string_D1Pv T
_Z23_txnal_cow_string_c_strPKv T
_Z23_txnal_sso_string_c_strPKv T
_Z26_txnal_logic_error_get_msgPv T
_Z27_txnal_cow_string_D1_commitPv T
_Z28_txnal_runtime_error_get_msgPv T
_Z35_txnal_cow_string_C1_for_exceptionsPvPKcS_ T
_ZGTtNKSt11logic_error4whatEv T
_ZGTtNKSt13bad_exception4whatEv T
_ZGTtNKSt13bad_exceptionD1Ev T
_ZGTtNKSt13runtime_error4whatEv T
_ZGTtNKSt9exception4whatEv T
_ZGTtNKSt9exceptionD1Ev T
_ZGTtNSt11logic_errorC1EPKc T
_ZGTtNSt11logic_errorC1ERKNSt7__cxx1112basic_stringIcSt11char_traitsIcESaIcEEE T
_ZGTtNSt11logic_errorC2EPKc T
_ZGTtNSt11logic_errorC2ERKNSt7__cxx1112basic_stringIcSt11char_traitsIcESaIcEEE T
_ZGTtNSt11logic_errorD0Ev T
_ZGTtNSt11logic_errorD1Ev T
_ZGTtNSt11logic_errorD2Ev T
_ZGTtNSt11range_errorC1EPKc T
_ZGTtNSt11range_errorC1ERKNSt7__cxx1112basic_stringIcSt11char_traitsIcESaIcEEE T
_ZGTtNSt11range_errorC2EPKc T
_ZGTtNSt11range_errorC2ERKNSt7__cxx1112basic_stringIcSt11char_traitsIcESaIcEEE T
_ZGTtNSt11range_errorD0Ev T
_ZGTtNSt11range_errorD1Ev T
_ZGTtNSt11range_errorD2Ev T
_ZGTtNSt12domain_errorC1EPKc T
_ZGTtNSt12domain_errorC1ERKNSt7__cxx1112basic_stringIcSt11char_traitsIcESaIcEEE T
_ZGTtNSt12domain_errorC2EPKc T
_ZGTtNSt12domain_errorC2ERKNSt7__cxx1112basic_stringIcSt11char_traitsIcESaIcEEE T
_ZGTtNSt12domain_errorD0Ev T
_ZGTtNSt12domain_errorD1Ev T
_ZGTtNSt12domain_errorD2Ev T
_ZGTtNSt12length_errorC1EPKc T
_ZGTtNSt12length_errorC1ERKNSt7__cxx1112basic_stringIcSt11char_traitsIcESaIcEEE T
_ZGTtNSt12length_errorC2EPKc T
_ZGTtNSt12length_errorC2ERKNSt7__cxx1112basic_stringIcSt11char_traitsIcESaIcEEE T
_ZGTtNSt12length_errorD0Ev T
_ZGTtNSt12length_errorD1Ev T
_ZGTtNSt12length_errorD2Ev T
_ZGTtNSt12out_of_rangeC1EPKc T
_ZGTtNSt12out_of_rangeC1ERKNSt7__cxx1112basic_stringIcSt11char_traitsIcESaIcEEE T
_ZGTtNSt12out_of_rangeC2EPKc T
_ZGTtNSt12out_of_rangeC2ERKNSt7__cxx1112basic_stringIcSt11char_traitsIcESaIcEEE T
_ZGTtNSt12out_of_rangeD0Ev T
_ZGTtNSt12out_of_rangeD1Ev T
_ZGTtNSt12out_of_rangeD2Ev T
_ZGTtNSt13runtime_errorC1EPKc T
_ZGTtNSt13runtime_errorC1ERKNSt7__cxx1112basic_stringIcSt11char_traitsIcESaIcEEE T
_ZGTtNSt13runtime_errorC2EPKc T
_ZGTtNSt13runtime_errorC2ERKNSt7__cxx1112basic_stringIcSt11char_traitsIcESaIcEEE T
_ZGTtNSt13runtime_errorD0Ev T
_ZGTtNSt13runtime_errorD1Ev T
_ZGTtNSt13runtime_errorD2Ev T
_ZGTtNSt14overflow_errorC1EPKc T
_ZGTtNSt14overflow_errorC1ERKNSt7__cxx1112basic_stringIcSt11char_traitsIcESaIcEEE T
_ZGTtNSt14overflow_errorC2EPKc T
_ZGTtNSt14overflow_errorC2ERKNSt7__cxx1112basic_stringIcSt11char_traitsIcESaIcEEE T
_ZGTtNSt14overflow_errorD0Ev T
_ZGTtNSt14overflow_errorD1Ev T
_ZGTtNSt14overflow_errorD2Ev T
_ZGTtNSt15underflow_errorC1EPKc T
_ZGTtNSt15underflow_errorC1ERKNSt7__cxx1112basic_stringIcSt11char_traitsIcESaIcEEE T
_ZGTtNSt15underflow_errorC2EPKc T
_ZGTtNSt15underflow_errorC2ERKNSt7__cxx1112basic_stringIcSt11char_traitsIcESaIcEEE T
_ZGTtNSt15underflow_errorD0Ev T
_ZGTtNSt15underflow_errorD1Ev T
_ZGTtNSt15underflow_errorD2Ev T
_ZGTtNSt16invalid_argumentC1EPKc T
_ZGTtNSt16invalid_argumentC1ERKNSt7__cxx1112basic_stringIcSt11char_traitsIcESaIcEEE T
_ZGTtNSt16invalid_argumentC2EPKc T
_ZGTtNSt16invalid_argumentC2ERKNSt7__cxx1112basic_stringIcSt11char_traitsIcESaIcEEE T
_ZGTtNSt16invalid_argumentD0Ev T
_ZGTtNSt16invalid_argumentD1Ev T
_ZGTtNSt16invalid_argumentD2Ev T
_ZGVNSt10moneypunctIcLb0EE2idE u
_ZGVNSt10moneypunctIcLb1EE2idE u
_ZGVNSt10moneypunctIwLb0EE2idE u
_ZGVNSt10moneypunctIwLb1EE2idE u
_ZGVNSt11__timepunctIcE2idE u
_ZGVNSt11__timepunctIwE2idE u
_ZGVNSt7__cxx1110moneypunctIcLb0EE2idE u
_ZGVNSt7__cxx1110moneypunctIcLb1EE2idE u
_ZGVNSt7__cxx1110moneypunctIwLb0EE2idE u
_ZGVNSt7__cxx1110moneypunctIwLb1EE2idE u
_ZGVNSt7__cxx117collateIcE2idE u
_ZGVNSt7__cxx117collateIwE2idE u
_ZGVNSt7__cxx118messagesIcE2idE u
_ZGVNSt7__cxx118messagesIwE2idE u
_ZGVNSt7__cxx118numpunctIcE2idE u
_ZGVNSt7__cxx118numpunctIwE2idE u
_ZGVNSt7__cxx118time_getIcSt19istreambuf_iteratorIcSt11char_traitsIcEEE2idE u
_ZGVNSt7__cxx118time_getIwSt19istreambuf_iteratorIwSt11char_traitsIwEEE2idE u
_ZGVNSt7__cxx119money_getIcSt19istreambuf_iteratorIcSt11char_traitsIcEEE2idE u
_ZGVNSt7__cxx119money_getIwSt19istreambuf_iteratorIwSt11char_traitsIwEEE2idE u
_ZGVNSt7__cxx119money_putIcSt19ostreambuf_iteratorIcSt11char_traitsIcEEE2idE u
_ZGVNSt7__cxx119money_putIwSt19ostreambuf_iteratorIwSt11char_traitsIwEEE2idE u
_ZGVNSt7collateIcE2idE u
_ZGVNSt7collateIwE2idE u
_ZGVNSt7num_getIcSt19istreambuf_iteratorIcSt11char_traitsIcEEE2idE u
_ZGVNSt7num_getIwSt19istreambuf_iteratorIwSt11char_traitsIwEEE2idE u
_ZGVNSt7num_putIcSt19ostreambuf_iteratorIcSt11char_traitsIcEEE2idE u
_ZGVNSt7num_putIwSt19ostreambuf_iteratorIwSt11char_traitsIwEEE2idE u
_ZGVNSt8messagesIcE2idE u
_ZGVNSt8messagesIwE2idE u
_ZGVNSt8numpunctIcE2idE u
_ZGVNSt8numpunctIwE2idE u
_ZGVNSt8time_getIcSt19istreambuf_iteratorIcSt11char_traitsIcEEE2idE u
_ZGVNSt8time_getIwSt19istreambuf_iteratorIwSt11char_traitsIwEEE2idE u
_ZGVNSt8time_putIcSt19ostreambuf_iteratorIcSt11char_traitsIcEEE2idE u
_ZGVNSt8time_putIwSt19ostreambuf_iteratorIwSt11char_traitsIwEEE2idE u
_ZGVNSt9money_getIcSt19istreambuf_iteratorIcSt11char_traitsIcEEE2idE u
_ZGVNSt9money_getIwSt19istreambuf_iteratorIwSt11char_traitsIwEEE2idE u
_ZGVNSt9money_putIcSt19ostreambuf_iteratorIcSt11char_traitsIcEEE2idE u
_ZGVNSt9money_putIwSt19ostreambuf_iteratorIwSt11char_traitsIwEEE2idE u
_ZN10__cxxabiv111__terminateEPFvvE T
_ZN10__cxxabiv112__unexpectedEPFvvE T
_ZN10__cxxabiv115__forced_unwindD0Ev T
_ZN10__cxxabiv115__forced_unwindD1Ev T
_ZN10__cxxabiv115__forced_unwindD2Ev T
_ZN10__cxxabiv117__class_type_infoD0Ev T
_ZN10__cxxabiv117__class_type_infoD1Ev T
_ZN10__cxxabiv117__class_type_infoD2Ev T
_ZN10__cxxabiv119__foreign_exceptionD0Ev T
_ZN10__cxxabiv119__foreign_exceptionD1Ev T
_ZN10__cxxabiv119__foreign_exceptionD2Ev T
_ZN10__cxxabiv119__terminate_handlerE D 8
_ZN10__cxxabiv120__si_class_type_infoD0Ev T
_ZN10__cxxabiv120__si_class_type_infoD1Ev T
_ZN10__cxxabiv120__si_class_type_infoD2Ev T
_ZN10__cxxabiv120__unexpected_handlerE D 8
_ZN10__cxxabiv121__vmi_class_type_infoD0Ev T
_ZN10__cxxabiv121__vmi_class_type_infoD1Ev T
_ZN10__cxxabiv121__vmi_class_type_infoD2Ev T
_ZN13G4AccumulableIdE5MergeERK14G4VAccumulable W
_ZN13G4AccumulableIdE5ResetEv W
_ZN13G4AccumulableIdED0Ev W
_ZN13G4AccumulableIdED2Ev W
_ZN14G4VAccumulableD0Ev W
_ZN14G4VAccumulableD2Ev W
_ZN15G4UserRunAction9SetMasterEb W
_ZN2B111EventAction16EndOfEventActionEPK7G4Event T
_ZN2B111EventAction18BeginOfEventActionEPK7G4Event T
_ZN2B111EventActionC1EPNS_9RunActionE T
_ZN2B111EventActionC2EPNS_9RunActionE T
_ZN2B111EventActionD0Ev W
_ZN2B114SteppingAction18UserSteppingActionEPK6G4Step T
_ZN2B114SteppingActionC1EPNS_11EventActionE T
_ZN2B114SteppingActionC2EPNS_11EventActionE T
_ZN2B114SteppingActionD0Ev W
_ZN2B120ActionInitializationD0Ev W
_ZN2B120DetectorConstruction9ConstructEv T
_ZN2B120DetectorConstructionD0Ev W
_ZN2B122PrimaryGeneratorAction17GeneratePrimariesEP7G4Event T
_ZN2B122PrimaryGeneratorActionC1Ev T
_ZN2B122PrimaryGeneratorActionC2Ev T
_ZN2B122PrimaryGeneratorActionD0Ev T
_ZN2B122PrimaryGeneratorActionD1Ev T
_ZN2B122PrimaryGeneratorActionD2Ev T
_ZN2B19RunAction14EndOfRunActionEPK5G4Run T
_ZN2B19RunAction16BeginOfRunActionEPK5G4Run T
_ZN2B19RunAction7AddEdepEd T
_ZN2B19RunActionC1Ev T
_ZN2B19RunActionC2Ev T
_ZN2B19RunActionD0Ev W
_ZN2B19RunActionD2Ev W
_ZN9__gnu_cxx13__scoped_lockD1Ev W
_ZN9__gnu_cxx13__scoped_lockD2Ev W
_ZN9__gnu_cxx13stdio_filebufIcSt11char_traitsIcEE2fdEv W
_ZN9__gnu_cxx13stdio_filebufIcSt11char_traitsIcEE4fileEv W
_ZN9__gnu_cxx13stdio_filebufIcSt11char_traitsIcEE4swapERS3_ W
_ZN9__gnu_cxx13stdio_filebufIcSt11char_traitsIcEEC1EP8_IO_FILESt13_Ios_Openmodem W
_ZN9__gnu_cxx13stdio_filebufIcSt11char_traitsIcEEC1EiSt13_Ios_Openmodem W
_ZN9__gnu_cxx13stdio_filebufIcSt11char_traitsIcEEC1Ev W
_ZN9__gnu_cxx13stdio_filebufIcSt11char_traitsIcEEC2EP8_IO_FILESt13_Ios_Openmodem W
_ZN9__gnu_cxx13stdio_filebufIcSt11char_traitsIcEEC2EiSt13_Ios_Openmodem W
_ZN9__gnu_cxx13stdio_filebufIcSt11char_traitsIcEEC2Ev W
_ZN9__gnu_cxx13stdio_filebufIcSt11char_traitsIcEED0Ev W
_ZN9__gnu_cxx13stdio_filebufIcSt11char_traitsIcEED1Ev W
_ZN9__gnu_cxx13stdio_filebufIcSt11char_traitsIcEED2Ev W
_ZN9__gnu_cxx13stdio_filebufIwSt11char_traitsIwEE2fdEv W
_ZN9__gnu_cxx13stdio_filebufIwSt11char_traitsIwEE4fileEv W
_ZN9__gnu_cxx13stdio_filebufIwSt11char_traitsIwEE4swapERS3_ W
_ZN9__gnu_cxx13stdio_filebufIwSt11char_traitsIwEEC1EP8_IO_FILESt13_Ios_Openmodem W
_ZN9__gnu_cxx13stdio_filebufIwSt11char_traitsIwEEC1EiSt13_Ios_Openmodem W
_ZN9__gnu_cxx13stdio_filebufIwSt11char_traitsIwEEC1Ev W
_ZN9__gnu_cxx13stdio_filebufIwSt11char_traitsIwEEC2EP8_IO_FILESt13_Ios_Openmodem W
_ZN9__gnu_cxx13stdio_filebufIwSt11char_traitsIwEEC2EiSt13_Ios_Openmodem W
_ZN9__gnu_cxx13stdio_filebufIwSt11char_traitsIwEEC2Ev W
_ZN9__gnu_cxx13stdio_filebufIwSt11char_traitsIwEED0Ev W
_ZN9__gnu_cxx13stdio_filebufIwSt11char_traitsIwEED1Ev W
_ZN9__gnu_cxx13stdio_filebufIwSt11char_traitsIwEED2Ev W
_ZN9__gnu_cxx15__concat_size_tEPcmm T
_ZN9__gnu_cxx15__snprintf_liteEPcmPKcP13__va_list_tag T
_ZN9__gnu_cxx18stdio_sync_filebufIcSt11char_traitsIcEE4fileEv W
_ZN9__gnu_cxx18stdio_sync_filebufIcSt11char_traitsIcEE4swapERS3_ W
_ZN9__gnu_cxx18stdio_sync_filebufIcSt11char_traitsIcEE4syncEv W
_ZN9__gnu_cxx18stdio_sync_filebufIcSt11char_traitsIcEE5uflowEv W
_ZN9__gnu_cxx18stdio_sync_filebufIcSt11char_traitsIcEE6xsgetnEPcl W
_ZN9__gnu_cxx18stdio_sync_filebufIcSt11char_traitsIcEE6xsputnEPKcl W
_ZN9__gnu_cxx18stdio_sync_filebufIcSt11char_traitsIcEE7seekoffElSt12_Ios_SeekdirSt13_Ios_Openmode W
_ZN9__gnu_cxx18stdio_sync_filebufIcSt11char_traitsIcEE7seekposESt4fposI11__mbstate_tESt13_Ios_Openmode W
_ZN9__gnu_cxx18stdio_sync_filebufIcSt11char_traitsIcEE8overflowEi W
_ZN9__gnu_cxx18stdio_sync_filebufIcSt11char_traitsIcEE9pbackfailEi W
_ZN9__gnu_cxx18stdio_sync_filebufIcSt11char_traitsIcEE9underflowEv W
_ZN9__gnu_cxx18stdio_sync_filebufIcSt11char_traitsIcEEC1EOS3_ W
_ZN9__gnu_cxx18stdio_sync_filebufIcSt11char_traitsIcEEC1EP8_IO_FILE W
_ZN9__gnu_cxx18stdio_sync_filebufIcSt11char_traitsIcEEC2EOS3_ W
_ZN9__gnu_cxx18stdio_sync_filebufIcSt11char_traitsIcEEC2EP8_IO_FILE W
_ZN9__gnu_cxx18stdio_sync_filebufIcSt11char_traitsIcEED0Ev W
_ZN9__gnu_cxx18stdio_sync_filebufIcSt11char_traitsIcEED1Ev W
_ZN9__gnu_cxx18stdio_sync_filebufIcSt11char_traitsIcEED2Ev W
_ZN9__gnu_cxx18stdio_sync_filebufIcSt11char_traitsIcEEaSEOS3_ W
_ZN9__gnu_cxx18stdio_sync_filebufIwSt11char_traitsIwEE4fileEv W
_ZN9__gnu_cxx18stdio_sync_filebufIwSt11char_traitsIwEE4swapERS3_ W
_ZN9__gnu_cxx18stdio_sync_filebufIwSt11char_traitsIwEE4syncEv W
_ZN9__gnu_cxx18stdio_sync_filebufIwSt11char_traitsIwEE5uflowEv W
_ZN9__gnu_cxx18stdio_sync_filebufIwSt11char_traitsIwEE6xsgetnEPwl W
_ZN9__gnu_cxx18stdio_sync_filebufIwSt11char_traitsIwEE6xsputnEPKwl W
_ZN9__gnu_cxx18stdio_sync_filebufIwSt11char_traitsIwEE7seekoffElSt12_Ios_SeekdirSt13_Ios_Openmode W
_ZN9__gnu_cxx18stdio_sync_filebufIwSt11char_traitsIwEE7seekposESt4fposI11__mbstate_tESt13_Ios_Openmode W
_ZN9__gnu_cxx18stdio_sync_filebufIwSt11char_traitsIwEE8overflowEj W
_ZN9__gnu_cxx18stdio_sync_filebufIwSt11char_traitsIwEE9pbackfailEj W
_ZN9__gnu_cxx18stdio_sync_filebufIwSt11char_traitsIwEE9underflowEv W
_ZN9__gnu_cxx18stdio_sync_filebufIwSt11char_traitsIwEEC1EOS3_ W
_ZN9__gnu_cxx18stdio_sync_filebufIwSt11char_traitsIwEEC1EP8_IO_FILE W
_ZN9__gnu_cxx18stdio_sync_filebufIwSt11char_traitsIwEEC2EOS3_ W
_ZN9__gnu_cxx18stdio_sync_filebufIwSt11char_traitsIwEEC2EP8_IO_FILE W
_ZN9__gnu_cxx18stdio_sync_filebufIwSt11char_traitsIwEED0Ev W
_ZN9__gnu_cxx18stdio_sync_filebufIwSt11char_traitsIwEED1Ev W
_ZN9__gnu_cxx18stdio_sync_filebufIwSt11char_traitsIwEED2Ev W
_ZN9__gnu_cxx18stdio_sync_filebufIwSt11char_traitsIwEEaSEOS3_ W
_ZN9__gnu_cxx20recursive_init_errorC1Ev T
_ZN9__gnu_cxx20recursive_init_errorC2Ev T
_ZN9__gnu_cxx20recursive_init_errorD0Ev T
_ZN9__gnu_cxx20recursive_init_errorD1Ev T
_ZN9__gnu_cxx20recursive_init_errorD2Ev T
_ZN9__gnu_cxx24__concurrence_lock_errorD0Ev W
_ZN9__gnu_cxx24__concurrence_lock_errorD1Ev W
_ZN9__gnu_cxx24__concurrence_lock_errorD2Ev W
_ZN9__gnu_cxx26__concurrence_unlock_errorD0Ev W
_ZN9__gnu_cxx26__concurrence_unlock_errorD1Ev W
_ZN9__gnu_cxx26__concurrence_unlock_errorD2Ev W
_ZN9__gnu_cxx26__throw_insufficient_spaceEPKcS1_ T
_ZN9__gnu_cxx27__verbose_terminate_handlerEv T
_ZN9__gnu_cxx30__throw_concurrence_lock_errorEv W
_ZN9__gnu_cxx32__throw_concurrence_unlock_errorEv W
_ZN9__gnu_cxx9__freeresEv T
_ZN9__gnu_cxxeqIPKcNSt7__cxx1112basic_stringIcSt11char_traitsIcESaIcEEEEEbRKNS_17__normal_iteratorIT_T0_EESE_ W
_ZN9__gnu_cxxeqIPKcSsEEbRKNS_17__normal_iteratorIT_T0_EES8_ W
_ZN9__gnu_cxxeqIPKwNSt7__cxx1112basic_stringIwSt11char_traitsIwESaIwEEEEEbRKNS_17__normal_iteratorIT_T0_EESE_ W
_ZN9__gnu_cxxeqIPKwSbIwSt11char_traitsIwESaIwEEEEbRKNS_17__normal_iteratorIT_T0_EESC_ W
_ZN9__gnu_cxxeqIPcNSt7__cxx1112basic_stringIcSt11char_traitsIcESaIcEEEEEbRKNS_17__normal_iteratorIT_T0_EESD_ W
_ZN9__gnu_cxxeqIPcSsEEbRKNS_17__normal_iteratorIT_T0_EES7_ W
_ZN9__gnu_cxxeqIPwNSt7__cxx1112basic_stringIwSt11char_traitsIwESaIwEEEEEbRKNS_17__normal_iteratorIT_T0_EESD_ W
_ZN9__gnu_cxxeqIPwSbIwSt11char_traitsIwESaIwEEEEbRKNS_17__normal_iteratorIT_T0_EESB_ W
_ZNK10__cxxabiv117__class_type_info10__do_catchEPKSt9type_infoPPvj T
_ZNK10__cxxabiv117__class_type_info11__do_upcastEPKS0_PKvRNS0_15__upcast_resultE T
_ZNK10__cxxabiv117__class_type_info11__do_upcastEPKS0_PPv T
_ZNK10__cxxabiv117__class_type_info12__do_dyncastElNS0_10__sub_kindEPKS0_PKvS3_S5_RNS0_16__dyncast_resultE T
_ZNK10__cxxabiv117__class_type_info20__do_find_public_srcElPKvPKS0_S2_ T
_ZNK10__cxxabiv120__si_class_type_info11__do_upcastEPKNS_17__class_type_infoEPKvRNS1_15__upcast_resultE T
_ZNK10__cxxabiv120__si_class_type_info12__do_dyncastElNS_17__class_type_info10__sub_kindEPKS1_PKvS4_S6_RNS1_16__dyncast_resultE T
_ZNK10__cxxabiv120__si_class_type_info20__do_find_public_srcElPKvPKNS_17__class_type_infoES2_ T
_ZNK10__cxxabiv121__vmi_class_type_info11__do_upcastEPKNS_17__class_type_infoEPKvRNS1_15__upcast_resultE T
_ZNK10__cxxabiv121__vmi_class_type_info12__do_dyncastElNS_17__class_type_info10__sub_kindEPKS1_PKvS4_S6_RNS1_16__dyncast_resultE T
_ZNK10__cxxabiv121__vmi_class_type_info20__do_find_public_srcElPKvPKNS_17__class_type_infoES2_ T
_ZNK2B120ActionInitialization14BuildForMasterEv T
_ZNK2B120ActionInitialization5BuildEv T
_ZNK9__gnu_cxx24__concurrence_lock_error4whatEv W
_ZNK9__gnu_cxx26__concurrence_unlock_error4whatEv W
_ZNKSbIwSt11char_traitsIwESaIwEE11_M_disjunctEPKw W
_ZNKSbIwSt11char_traitsIwESaIwEE12find_last_ofEPKwm W
_ZNKSbIwSt11char_traitsIwESaIwEE12find_last_ofEPKwmm W
_ZNKSbIwSt11char_traitsIwESaIwEE12find_last_ofERKS2_m W
_ZNKSbIwSt11char_traitsIwESaIwEE12find_last_ofEwm W
_ZNKSbIwSt11char_traitsIwESaIwEE13find_first_ofEPKwm W
_ZNKSbIwSt11char_traitsIwESaIwEE13find_first_ofEPKwmm W
_ZNKSbIwSt11char_traitsIwESaIwEE13find_first_ofERKS2_m W
_ZNKSbIwSt11char_traitsIwESaIwEE13find_first_ofEwm W
_ZNKSbIwSt11char_traitsIwESaIwEE13get_allocatorEv W
_ZNKSbIwSt11char_traitsIwESaIwEE15_M_check_lengthEmmPKc W
_ZNKSbIwSt11char_traitsIwESaIwEE16find_last_not_ofEPKwm W
_ZNKSbIwSt11char_traitsIwESaIwEE16find_last_not_ofEPKwmm W
_ZNKSbIwSt11char_traitsIwESaIwEE16find_last_not_ofERKS2_m W
_ZNKSbIwSt11char_traitsIwESaIwEE16find_last_not_ofEwm W
_ZNKSbIwSt11char_traitsIwESaIwEE17find_first_not_ofEPKwm W
_ZNKSbIwSt11char_traitsIwESaIwEE17find_first_not_ofEPKwmm W
_ZNKSbIwSt11char_traitsIwESaIwEE17find_first_not_ofERKS2_m W
_ZNKSbIwSt11char_traitsIwESaIwEE17find_first_not_ofEwm W
_ZNKSbIwSt11char_traitsIwESaIwEE2atEm W
_ZNKSbIwSt11char_traitsIwESaIwEE3endEv W
_ZNKSbIwSt11char_traitsIwESaIwEE4_Rep12_M_is_leakedEv W
_ZNKSbIwSt11char_traitsIwESaIwEE4_Rep12_M_is_sharedEv W
_ZNKSbIwSt11char_traitsIwESaIwEE4backEv W
_ZNKSbIwSt11char_traitsIwESaIwEE4cendEv W
_ZNKSbIwSt11char_traitsIwESaIwEE4copyEPwmm W
_ZNKSbIwSt11char_traitsIwESaIwEE4dataEv W
_ZNKSbIwSt11char_traitsIwESaIwEE4findEPKwm W
_ZNKSbIwSt11char_traitsIwESaIwEE4findEPKwmm W
_ZNKSbIwSt11char_traitsIwESaIwEE4findERKS2_m W
_ZNKSbIwSt11char_traitsIwESaIwEE4findEwm W
_ZNKSbIwSt11char_traitsIwESaIwEE4rendEv W
_ZNKSbIwSt11char_traitsIwESaIwEE4sizeEv W
_ZNKSbIwSt11char_traitsIwESaIwEE5beginEv W
_ZNKSbIwSt11char_traitsIwESaIwEE5c_strEv W
_ZNKSbIwSt11char_traitsIwESaIwEE5crendEv W
_ZNKSbIwSt11char_traitsIwESaIwEE5emptyEv W
_ZNKSbIwSt11char_traitsIwESaIwEE5frontEv W
_ZNKSbIwSt11char_traitsIwESaIwEE5rfindEPKwm W
_ZNKSbIwSt11char_traitsIwESaIwEE5rfindEPKwmm W
_ZNKSbIwSt11char_traitsIwESaIwEE5rfindERKS2_m W
_ZNKSbIwSt11char_traitsIwESaIwEE5rfindEwm W
_ZNKSbIwSt11char_traitsIwESaIwEE6_M_repEv W
_ZNKSbIwSt11char_traitsIwESaIwEE6cbeginEv W
_ZNKSbIwSt11char_traitsIwESaIwEE6lengthEv W
_ZNKSbIwSt11char_traitsIwESaIwEE6rbeginEv W
_ZNKSbIwSt11char_traitsIwESaIwEE6substrEmm W
_ZNKSbIwSt11char_traitsIwESaIwEE7_M_dataEv W
_ZNKSbIwSt11char_traitsIwESaIwEE7_M_iendEv W
_ZNKSbIwSt11char_traitsIwESaIwEE7compareEPKw W
_ZNKSbIwSt11char_traitsIwESaIwEE7compareERKS2_ W
_ZNKSbIwSt11char_traitsIwESaIwEE7compareEmmPKw W
_ZNKSbIwSt11char_traitsIwESaIwEE7compareEmmPKwm W
_ZNKSbIwSt11char_traitsIwESaIwEE7compareEmmRKS2_ W
_ZNKSbIwSt11char_traitsIwESaIwEE7compareEmmRKS2_mm W
_ZNKSbIwSt11char_traitsIwESaIwEE7crbeginEv W
_ZNKSbIwSt11char_traitsIwESaIwEE8_M_checkEmPKc W
_ZNKSbIwSt11char_traitsIwESaIwEE8_M_limitEmm W
_ZNKSbIwSt11char_traitsIwESaIwEE8capacityEv W
_ZNKSbIwSt11char_traitsIwESaIwEE8max_sizeEv W
_ZNKSbIwSt11char_traitsIwESaIwEE9_M_ibeginEv W
_ZNKSbIwSt11char_traitsIwESaIwEEixEm W
_ZNKSi6gcountEv W
_ZNKSi6sentrycvbEv W
_ZNKSo6sentrycvbEv W
_ZNKSs11_M_disjunctEPKc W
_ZNKSs12find_last_ofEPKcm W
_ZNKSs12find_last_ofEPKcmm W
_ZNKSs12find_last_ofERKSsm W
_ZNKSs12find_last_ofEcm W
_ZNKSs13find_first_ofEPKcm W
_ZNKSs13find_first_ofEPKcmm W
_ZNKSs13find_first_ofERKSsm W
_ZNKSs13find_first_ofEcm W
_ZNKSs13get_allocatorEv W
_ZNKSs15_M_check_lengthEmmPKc W
_ZNKSs16find_last_not_ofEPKcm W
_ZNKSs16find_last_not_ofEPKcmm W
_ZNKSs16find_last_not_ofERKSsm W
_ZNKSs16find_last_not_ofEcm W
_ZNKSs17find_first_not_ofEPKcm W
_ZNKSs17find_first_not_ofEPKcmm W
_ZNKSs17find_first_not_ofERKSsm W
_ZNKSs17find_first_not_ofEcm W
_ZNKSs2atEm W
_ZNKSs3endEv W
_ZNKSs4_Rep12_M_is_leakedEv W
_ZNKSs4_Rep12_M_is_sharedEv W
_ZNKSs4backEv W
_ZNKSs4cendEv W
_ZNKSs4copyEPcmm W
_ZNKSs4dataEv W
_ZNKSs4findEPKcm W
_ZNKSs4findEPKcmm W
_ZNKSs4findERKSsm W
_ZNKSs4findEcm W
_ZNKSs4rendEv W
_ZNKSs4sizeEv W
_ZNKSs5beginEv W
_ZNKSs5c_strEv W
_ZNKSs5crendEv W
_ZNKSs5emptyEv W
_ZNKSs5frontEv W
_ZNKSs5rfindEPKcm W
_ZNKSs5rfindEPKcmm W
_ZNKSs5rfindERKSsm W
_ZNKSs5rfindEcm W
_ZNKSs6_M_repEv W
_ZNKSs6cbeginEv W
_ZNKSs6lengthEv W
_ZNKSs6rbeginEv W
_ZNKSs6substrEmm W
_ZNKSs7_M_dataEv W
_ZNKSs7_M_iendEv W
_ZNKSs7compareEPKc W
_ZNKSs7compareERKSs W
_ZNKSs7compareEmmPKc W
_ZNKSs7compareEmmPKcm W
_ZNKSs7compareEmmRKSs W
_ZNKSs7compareEmmRKSsmm W
_ZNKSs7crbeginEv W
_ZNKSs8_M_checkEmPKc W
_ZNKSs8_M_limitEmm W
_ZNKSs8capacityEv W
_ZNKSs8max_sizeEv W
_ZNKSs9_M_ibeginEv W
_ZNKSsixEm W
_ZNKSt10bad_typeid4whatEv T
_ZNKSt10error_code23default_error_conditionEv T
_ZNKSt10moneypunctIcLb0EE10neg_formatEv W
_ZNKSt10moneypunctIcLb0EE10pos_formatEv W
_ZNKSt10moneypunctIcLb0EE11curr_symbolEv W
_ZNKSt10moneypunctIcLb0EE11do_groupingEv W
_ZNKSt10moneypunctIcLb0EE11frac_digitsEv W
_ZNKSt10moneypunctIcLb0EE13decimal_pointEv W
_ZNKSt10moneypunctIcLb0EE13do_neg_formatEv W
_ZNKSt10moneypunctIcLb0EE13do_pos_formatEv W
_ZNKSt10moneypunctIcLb0EE13negative_signEv W
_ZNKSt10moneypunctIcLb0EE13positive_signEv W
_ZNKSt10moneypunctIcLb0EE13thousands_sepEv W
_ZNKSt10moneypunctIcLb0EE14do_curr_symbolEv W
_ZNKSt10moneypunctIcLb0EE14do_frac_digitsEv W
_ZNKSt10moneypunctIcLb0EE16do_decimal_pointEv W
_ZNKSt10moneypunctIcLb0EE16do_negative_signEv W
_ZNKSt10moneypunctIcLb0EE16do_positive_signEv W
_ZNKSt10moneypunctIcLb0EE16do_thousands_sepEv W
_ZNKSt10moneypunctIcLb0EE8groupingEv W
_ZNKSt10moneypunctIcLb1EE10neg_formatEv W
_ZNKSt10moneypunctIcLb1EE10pos_formatEv W
_ZNKSt10moneypunctIcLb1EE11curr_symbolEv W
_ZNKSt10moneypunctIcLb1EE11do_groupingEv W
_ZNKSt10moneypunctIcLb1EE11frac_digitsEv W
_ZNKSt10moneypunctIcLb1EE13decimal_pointEv W
_ZNKSt10moneypunctIcLb1EE13do_neg_formatEv W
_ZNKSt10moneypunctIcLb1EE13do_pos_formatEv W
_ZNKSt10moneypunctIcLb1EE13negative_signEv W
_ZNKSt10moneypunctIcLb1EE13positive_signEv W
_ZNKSt10moneypunctIcLb1EE13thousands_sepEv W
_ZNKSt10moneypunctIcLb1EE14do_curr_symbolEv W
_ZNKSt10moneypunctIcLb1EE14do_frac_digitsEv W
_ZNKSt10moneypunctIcLb1EE16do_decimal_pointEv W
_ZNKSt10moneypunctIcLb1EE16do_negative_signEv W
_ZNKSt10moneypunctIcLb1EE16do_positive_signEv W
_ZNKSt10moneypunctIcLb1EE16do_thousands_sepEv W
_ZNKSt10moneypunctIcLb1EE8groupingEv W
_ZNKSt10moneypunctIwLb0EE10neg_formatEv W
_ZNKSt10moneypunctIwLb0EE10pos_formatEv W
_ZNKSt10moneypunctIwLb0EE11curr_symbolEv W
_ZNKSt10moneypunctIwLb0EE11do_groupingEv W
_ZNKSt10moneypunctIwLb0EE11frac_digitsEv W
_ZNKSt10moneypunctIwLb0EE13decimal_pointEv W
_ZNKSt10moneypunctIwLb0EE13do_neg_formatEv W
_ZNKSt10moneypunctIwLb0EE13do_pos_formatEv W
_ZNKSt10moneypunctIwLb0EE13negative_signEv W
_ZNKSt10moneypunctIwLb0EE13positive_signEv W
_ZNKSt10moneypunctIwLb0EE13thousands_sepEv W
_ZNKSt10moneypunctIwLb0EE14do_curr_symbolEv W
_ZNKSt10moneypunctIwLb0EE14do_frac_digitsEv W
_ZNKSt10moneypunctIwLb0EE16do_decimal_pointEv W
_ZNKSt10moneypunctIwLb0EE16do_negative_signEv W
_ZNKSt10moneypunctIwLb0EE16do_positive_signEv W
_ZNKSt10moneypunctIwLb0EE16do_thousands_sepEv W
_ZNKSt10moneypunctIwLb0EE8groupingEv W
_ZNKSt10moneypunctIwLb1EE10neg_formatEv W
_ZNKSt10moneypunctIwLb1EE10pos_formatEv W
_ZNKSt10moneypunctIwLb1EE11curr_symbolEv W
_ZNKSt10moneypunctIwLb1EE11do_groupingEv W
_ZNKSt10moneypunctIwLb1EE11frac_digitsEv W
_ZNKSt10moneypunctIwLb1EE13decimal_pointEv W
_ZNKSt10moneypunctIwLb1EE13do_neg_formatEv W
_ZNKSt10moneypunctIwLb1EE13do_pos_formatEv W
_ZNKSt10moneypunctIwLb1EE13negative_signEv W
_ZNKSt10moneypunctIwLb1EE13positive_signEv W
_ZNKSt10moneypunctIwLb1EE13thousands_sepEv W
_ZNKSt10moneypunctIwLb1EE14do_curr_symbolEv W
_ZNKSt10moneypunctIwLb1EE14do_frac_digitsEv W
_ZNKSt10moneypunctIwLb1EE16do_decimal_pointEv W
_ZNKSt10moneypunctIwLb1EE16do_negative_signEv W
_ZNKSt10moneypunctIwLb1EE16do_positive_signEv W
_ZNKSt10moneypunctIwLb1EE16do_thousands_sepEv W
_ZNKSt10moneypunctIwLb1EE8groupingEv W
_ZNKSt11__timepunctIcE15_M_am_pm_formatEPKc W
_ZNKSt11__timepunctIcE15_M_am_pm_formatEPPKc W
_ZNKSt11__timepunctIcE15_M_date_formatsEPPKc W
_ZNKSt11__timepunctIcE15_M_time_formatsEPPKc W
_ZNKSt11__timepunctIcE19_M_days_abbreviatedEPPKc W
_ZNKSt11__timepunctIcE20_M_date_time_formatsEPPKc W
_ZNKSt11__timepunctIcE21_M_months_abbreviatedEPPKc W
_ZNKSt11__timepunctIcE6_M_putEPcmPKcPK2tm T
_ZNKSt11__timepunctIcE7_M_daysEPPKc W
_ZNKSt11__timepunctIcE8_M_am_pmEPPKc W
_ZNKSt11__timepunctIcE9_M_monthsEPPKc W
_ZNKSt11__timepunctIwE15_M_am_pm_formatEPKw W
_ZNKSt11__timepunctIwE15_M_am_pm_formatEPPKw W
_ZNKSt11__timepunctIwE15_M_date_formatsEPPKw W
_ZNKSt11__timepunctIwE15_M_time_formatsEPPKw W
_ZNKSt11__timepunctIwE19_M_days_abbreviatedEPPKw W
_ZNKSt11__timepunctIwE20_M_date_time_formatsEPPKw W
_ZNKSt11__timepunctIwE21_M_months_abbreviatedEPPKw W
_ZNKSt11__timepunctIwE6_M_putEPwmPKwPK2tm T
_ZNKSt11__timepunctIwE7_M_daysEPPKw W
_ZNKSt11__timepunctIwE8_M_am_pmEPPKw W
_ZNKSt11__timepunctIwE9_M_monthsEPPKw W
_ZNKSt11logic_error4whatEv T
_ZNKSt12__basic_fileIcE7is_openEv T
_ZNKSt13bad_exception4whatEv T
_ZNKSt13basic_filebufIcSt11char_traitsIcEE7is_openEv W
_ZNKSt13basic_filebufIwSt11char_traitsIwEE7is_openEv W
_ZNKSt13basic_fstreamIcSt11char_traitsIcEE5rdbufEv W
_ZNKSt13basic_fstreamIcSt11char_traitsIcEE7is_openEv W
_ZNKSt13basic_fstreamIwSt11char_traitsIwEE5rdbufEv W
_ZNKSt13basic_fstreamIwSt11char_traitsIwEE7is_openEv W
_ZNKSt13basic_istreamIwSt11char_traitsIwEE6gcountEv W
_ZNKSt13basic_istreamIwSt11char_traitsIwEE6sentrycvbEv W
_ZNKSt13basic_ostreamIwSt11char_traitsIwEE6sentrycvbEv W
_ZNKSt13random_device13_M_getentropyEv T
_ZNKSt13runtime_error4whatEv T
_ZNKSt14basic_ifstreamIcSt11char_traitsIcEE5rdbufEv W
_ZNKSt14basic_ifstreamIcSt11char_traitsIcEE7is_openEv W
_ZNKSt14basic_ifstreamIwSt11char_traitsIwEE5rdbufEv W
_ZNKSt14basic_ifstreamIwSt11char_traitsIwEE7is_openEv W
_ZNKSt14basic_ofstreamIcSt11char_traitsIcEE5rdbufEv W
_ZNKSt14basic_ofstreamIcSt11char_traitsIcEE7is_openEv W
_ZNKSt14basic_ofstreamIwSt11char_traitsIwEE5rdbufEv W
_ZNKSt14basic_ofstreamIwSt11char_traitsIwEE7is_openEv W
_ZNKSt15basic_streambufIcSt11char_traitsIcEE4gptrEv W
_ZNKSt15basic_streambufIcSt11char_traitsIcEE4pptrEv W
_ZNKSt15basic_streambufIcSt11char_traitsIcEE5ebackEv W
_ZNKSt15basic_streambufIcSt11char_traitsIcEE5egptrEv W
_ZNKSt15basic_streambufIcSt11char_traitsIcEE5epptrEv W
_ZNKSt15basic_streambufIcSt11char_traitsIcEE5pbaseEv W
_ZNKSt15basic_streambufIcSt11char_traitsIcEE6getlocEv W
_ZNKSt15basic_streambufIwSt11char_traitsIwEE4gptrEv W
_ZNKSt15basic_streambufIwSt11char_traitsIwEE4pptrEv W
_ZNKSt15basic_streambufIwSt11char_traitsIwEE5ebackEv W
_ZNKSt15basic_streambufIwSt11char_traitsIwEE5egptrEv W
_ZNKSt15basic_streambufIwSt11char_traitsIwEE5epptrEv W
_ZNKSt15basic_streambufIwSt11char_traitsIwEE5pbaseEv W
_ZNKSt15basic_streambufIwSt11char_traitsIwEE6getlocEv W
_ZNKSt17bad_function_call4whatEv T
_ZNKSt19__codecvt_utf8_baseIDiE10do_unshiftER11__mbstate_tPcS3_RS3_ T
_ZNKSt19__codecvt_utf8_baseIDiE11do_encodingEv T
_ZNKSt19__codecvt_utf8_baseIDiE13do_max_lengthEv T
_ZNKSt19__codecvt_utf8_baseIDiE16do_always_noconvEv T
_ZNKSt19__codecvt_utf8_baseIDiE5do_inER11__mbstate_tPKcS4_RS4_PDiS6_RS6_ T
_ZNKSt19__codecvt_utf8_baseIDiE6do_outER11__mbstate_tPKDiS4_RS4_PcS6_RS6_ T
_ZNKSt19__codecvt_utf8_baseIDiE9do_lengthER11__mbstate_tPKcS4_m T
_ZNKSt19__codecvt_utf8_baseIDsE10do_unshiftER11__mbstate_tPcS3_RS3_ T
_ZNKSt19__codecvt_utf8_baseIDsE11do_encodingEv T
_ZNKSt19__codecvt_utf8_baseIDsE13do_max_lengthEv T
_ZNKSt19__codecvt_utf8_baseIDsE16do_always_noconvEv T
_ZNKSt19__codecvt_utf8_baseIDsE5do_inER11__mbstate_tPKcS4_RS4_PDsS6_RS6_ T
_ZNKSt19__codecvt_utf8_baseIDsE6do_outER11__mbstate_tPKDsS4_RS4_PcS6_RS6_ T
_ZNKSt19__codecvt_utf8_baseIDsE9do_lengthER11__mbstate_tPKcS4_m T
_ZNKSt19__codecvt_utf8_baseIwE10do_unshiftER11__mbstate_tPcS3_RS3_ T
_ZNKSt19__codecvt_utf8_baseIwE11do_encodingEv T
_ZNKSt19__codecvt_utf8_baseIwE13do_max_lengthEv T
_ZNKSt19__codecvt_utf8_baseIwE16do_always_noconvEv T
_ZNKSt19__codecvt_utf8_baseIwE5do_inER11__mbstate_tPKcS4_RS4_PwS6_RS6_ T
_ZNKSt19__codecvt_utf8_baseIwE6do_outER11__mbstate_tPKwS4_RS4_PcS6_RS6_ T
_ZNKSt19__codecvt_utf8_baseIwE9do_lengthER11__mbstate_tPKcS4_m T
_ZNKSt19__iosfail_type_info11__do_upcastEPKN10__cxxabiv117__class_type_infoEPPv T
_ZNKSt19istreambuf_iteratorIcSt11char_traitsIcEE5equalERKS2_ W
_ZNKSt19istreambuf_iteratorIcSt11char_traitsIcEE6_M_getEv W
_ZNKSt19istreambuf_iteratorIwSt11char_traitsIwEE5equalERKS2_ W
_ZNKSt19istreambuf_iteratorIwSt11char_traitsIwEE6_M_getEv W
_ZNKSt20__codecvt_utf16_baseIDiE10do_unshiftER11__mbstate_tPcS3_RS3_ T
_ZNKSt20__codecvt_utf16_baseIDiE11do_encodingEv T
_ZNKSt20__codecvt_utf16_baseIDiE13do_max_lengthEv T
_ZNKSt20__codecvt_utf16_baseIDiE16do_always_noconvEv T
_ZNKSt20__codecvt_utf16_baseIDiE5do_inER11__mbstate_tPKcS4_RS4_PDiS6_RS6_ T
_ZNKSt20__codecvt_utf16_baseIDiE6do_outER11__mbstate_tPKDiS4_RS4_PcS6_RS6_ T
_ZNKSt20__codecvt_utf16_baseIDiE9do_lengthER11__mbstate_tPKcS4_m T
_ZNKSt20__codecvt_utf16_baseIDsE10do_unshiftER11__mbstate_tPcS3_RS3_ T
_ZNKSt20__codecvt_utf16_baseIDsE11do_encodingEv T
_ZNKSt20__codecvt_utf16_baseIDsE13do_max_lengthEv T
_ZNKSt20__codecvt_utf16_baseIDsE16do_always_noconvEv T
_ZNKSt20__codecvt_utf16_baseIDsE5do_inER11__mbstate_tPKcS4_RS4_PDsS6_RS6_ T
_ZNKSt20__codecvt_utf16_baseIDsE6do_outER11__mbstate_tPKDsS4_RS4_PcS6_RS6_ T
_ZNKSt20__codecvt_utf16_baseIDsE9do_lengthER11__mbstate_tPKcS4_m T
_ZNKSt20__codecvt_utf16_baseIwE10do_unshiftER11__mbstate_tPcS3_RS3_ T
_ZNKSt20__codecvt_utf16_baseIwE11do_encodingEv T
_ZNKSt20__codecvt_utf16_baseIwE13do_max_lengthEv T
_ZNKSt20__codecvt_utf16_baseIwE16do_always_noconvEv T
_ZNKSt20__codecvt_utf16_baseIwE5do_inER11__mbstate_tPKcS4_RS4_PwS6_RS6_ T
_ZNKSt20__codecvt_utf16_baseIwE6do_outER11__mbstate_tPKwS4_RS4_PcS6_RS6_ T
_ZNKSt20__codecvt_utf16_baseIwE9do_lengthER11__mbstate_tPKcS4_m T
_ZNKSt20bad_array_new_length4whatEv T
_ZNKSt25__codecvt_utf8_utf16_baseIDiE10do_unshiftER11__mbstate_tPcS3_RS3_ T
_ZNKSt25__codecvt_utf8_utf16_baseIDiE11do_encodingEv T
_ZNKSt25__codecvt_utf8_utf16_baseIDiE13do_max_lengthEv T
_ZNKSt25__codecvt_utf8_utf16_baseIDiE16do_always_noconvEv T
_ZNKSt25__codecvt_utf8_utf16_baseIDiE5do_inER11__mbstate_tPKcS4_RS4_PDiS6_RS6_ T
_ZNKSt25__codecvt_utf8_utf16_baseIDiE6do_outER11__mbstate_tPKDiS4_RS4_PcS6_RS6_ T
_ZNKSt25__codecvt_utf8_utf16_baseIDiE9do_lengthER11__mbstate_tPKcS4_m T
_ZNKSt25__codecvt_utf8_utf16_baseIDsE10do_unshiftER11__mbstate_tPcS3_RS3_ T
_ZNKSt25__codecvt_utf8_utf16_baseIDsE11do_encodingEv T
_ZNKSt25__codecvt_utf8_utf16_baseIDsE13do_max_lengthEv T
_ZNKSt25__codecvt_utf8_utf16_baseIDsE16do_always_noconvEv T
_ZNKSt25__codecvt_utf8_utf16_baseIDsE5do_inER11__mbstate_tPKcS4_RS4_PDsS6_RS6_ T
_ZNKSt25__codecvt_utf8_utf16_baseIDsE6do_outER11__mbstate_tPKDsS4_RS4_PcS6_RS6_ T
_ZNKSt25__codecvt_utf8_utf16_baseIDsE9do_lengthER11__mbstate_tPKcS4_m T
_ZNKSt25__codecvt_utf8_utf16_baseIwE10do_unshiftER11__mbstate_tPcS3_RS3_ T
_ZNKSt25__codecvt_utf8_utf16_baseIwE11do_encodingEv T
_ZNKSt25__codecvt_utf8_utf16_baseIwE13do_max_lengthEv T
_ZNKSt25__codecvt_utf8_utf16_baseIwE16do_always_noconvEv T
_ZNKSt25__codecvt_utf8_utf16_baseIwE5do_inER11__mbstate_tPKcS4_RS4_PwS6_RS6_ T
_ZNKSt25__codecvt_utf8_utf16_baseIwE6do_outER11__mbstate_tPKwS4_RS4_PcS6_RS6_ T
_ZNKSt25__codecvt_utf8_utf16_baseIwE9do_lengthER11__mbstate_tPKcS4_m T
_ZNKSt3_V214error_category10_M_messageB5cxx11Ei T
_ZNKSt3_V214error_category10_M_messageEi T
_ZNKSt3_V214error_category10equivalentERKSt10error_codei T
_ZNKSt3_V214error_category10equivalentEiRKSt15error_condition T
_ZNKSt3_V214error_category23default_error_conditionEi T
_ZNKSt5ctypeIcE10do_tolowerEPcPKc T
_ZNKSt5ctypeIcE10do_tolowerEc T
_ZNKSt5ctypeIcE10do_toupperEPcPKc T
_ZNKSt5ctypeIcE10do_toupperEc T
_ZNKSt5ctypeIcE13_M_widen_initEv T
_ZNKSt5ctypeIcE14_M_narrow_initEv T
_ZNKSt5ctypeIcE6narrowEcc W
_ZNKSt5ctypeIcE8do_widenEPKcS2_Pc W
_ZNKSt5ctypeIcE8do_widenEc W
_ZNKSt5ctypeIcE9do_narrowEPKcS2_cPc W
_ZNKSt5ctypeIcE9do_narrowEcc W
_ZNKSt5ctypeIwE10do_scan_isEtPKwS2_ T
_ZNKSt5ctypeIwE10do_tolowerEPwPKw T
_ZNKSt5ctypeIwE10do_tolowerEw T
_ZNKSt5ctypeIwE10do_toupperEPwPKw T
_ZNKSt5ctypeIwE10do_toupperEw T
_ZNKSt5ctypeIwE11do_scan_notEtPKwS2_ T
_ZNKSt5ctypeIwE19_M_convert_to_wmaskEt T
_ZNKSt5ctypeIwE5do_isEPKwS2_Pt T
_ZNKSt5ctypeIwE5do_isEtw T
_ZNKSt5ctypeIwE8do_widenEPKcS2_Pw T
_ZNKSt5ctypeIwE8do_widenEc T
_ZNKSt5ctypeIwE9do_narrowEPKwS2_cPc T
_ZNKSt5ctypeIwE9do_narrowEwc T
_ZNKSt6locale2id5_M_idEv T
_ZNKSt6locale4nameB5cxx11Ev T
_ZNKSt6locale4nameEv T
_ZNKSt6locale5facet11_M_cow_shimEPKNS_2idE T
_ZNKSt6locale5facet11_M_sso_shimEPKNS_2idE T
_ZNKSt6locale5facet19_M_remove_referenceEv W
_ZNKSt6localeeqERKS_ T
_ZNKSt7__cxx1110moneypunctIcLb0EE10neg_formatEv W
_ZNKSt7__cxx1110moneypunctIcLb0EE10pos_formatEv W
_ZNKSt7__cxx1110moneypunctIcLb0EE11curr_symbolEv W
_ZNKSt7__cxx1110moneypunctIcLb0EE11do_groupingEv W
_ZNKSt7__cxx1110moneypunctIcLb0EE11frac_digitsEv W
_ZNKSt7__cxx1110moneypunctIcLb0EE13decimal_pointEv W
_ZNKSt7__cxx1110moneypunctIcLb0EE13do_neg_formatEv W
_ZNKSt7__cxx1110moneypunctIcLb0EE13do_pos_formatEv W
_ZNKSt7__cxx1110moneypunctIcLb0EE13negative_signEv W
_ZNKSt7__cxx1110moneypunctIcLb0EE13positive_signEv W
_ZNKSt7__cxx1110moneypunctIcLb0EE13thousands_sepEv W
_ZNKSt7__cxx1110moneypunctIcLb0EE14do_curr_symbolEv W
_ZNKSt7__cxx1110moneypunctIcLb0EE14do_frac_digitsEv W
_ZNKSt7__cxx1110moneypunctIcLb0EE16do_decimal_pointEv W
_ZNKSt7__cxx1110moneypunctIcLb0EE16do_negative_signEv W
_ZNKSt7__cxx1110moneypunctIcLb0EE16do_positive_signEv W
_ZNKSt7__cxx1110moneypunctIcLb0EE16do_thousands_sepEv W
_ZNKSt7__cxx1110moneypunctIcLb0EE8groupingEv W
_ZNKSt7__cxx1110moneypunctIcLb1EE10neg_formatEv W
_ZNKSt7__cxx1110moneypunctIcLb1EE10pos_formatEv W
_ZNKSt7__cxx1110moneypunctIcLb1EE11curr_symbolEv W
_ZNKSt7__cxx1110moneypunctIcLb1EE11do_groupingEv W
_ZNKSt7__cxx1110moneypunctIcLb1EE11frac_digitsEv W
_ZNKSt7__cxx1110moneypunctIcLb1EE13decimal_pointEv W
_ZNKSt7__cxx1110moneypunctIcLb1EE13do_neg_formatEv W
_ZNKSt7__cxx1110moneypunctIcLb1EE13do_pos_formatEv W
_ZNKSt7__cxx1110moneypunctIcLb1EE13negative_signEv W
_ZNKSt7__cxx1110moneypunctIcLb1EE13positive_signEv W
_ZNKSt7__cxx1110moneypunctIcLb1EE13thousands_sepEv W
_ZNKSt7__cxx1110moneypunctIcLb1EE14do_curr_symbolEv W
_ZNKSt7__cxx1110moneypunctIcLb1EE14do_frac_digitsEv W
_ZNKSt7__cxx1110moneypunctIcLb1EE16do_decimal_pointEv W
_ZNKSt7__cxx1110moneypunctIcLb1EE16do_negative_signEv W
_ZNKSt7__cxx1110moneypunctIcLb1EE16do_positive_signEv W
_ZNKSt7__cxx1110moneypunctIcLb1EE16do_thousands_sepEv W
_ZNKSt7__cxx1110moneypunctIcLb1EE8groupingEv W
_ZNKSt7__cxx1110moneypunctIwLb0EE10neg_formatEv W
_ZNKSt7__cxx1110moneypunctIwLb0EE10pos_formatEv W
_ZNKSt7__cxx1110moneypunctIwLb0EE11curr_symbolEv W
_ZNKSt7__cxx1110moneypunctIwLb0EE11do_groupingEv W
_ZNKSt7__cxx1110moneypunctIwLb0EE11frac_digitsEv W
_ZNKSt7__cxx1110moneypunctIwLb0EE13decimal_pointEv W
_ZNKSt7__cxx1110moneypunctIwLb0EE13do_neg_formatEv W
_ZNKSt7__cxx1110moneypunctIwLb0EE13do_pos_formatEv W
_ZNKSt7__cxx1110moneypunctIwLb0EE13negative_signEv W
_ZNKSt7__cxx1110moneypunctIwLb0EE13positive_signEv W
_ZNKSt7__cxx1110moneypunctIwLb0EE13thousands_sepEv W
_ZNKSt7__cxx1110moneypunctIwLb0EE14do_curr_symbolEv W
_ZNKSt7__cxx1110moneypunctIwLb0EE14do_frac_digitsEv W
_ZNKSt7__cxx1110moneypunctIwLb0EE16do_decimal_pointEv W
_ZNKSt7__cxx1110moneypunctIwLb0EE16do_negative_signEv W
_ZNKSt7__cxx1110moneypunctIwLb0EE16do_positive_signEv W
_ZNKSt7__cxx1110moneypunctIwLb0EE16do_thousands_sepEv W
_ZNKSt7__cxx1110moneypunctIwLb0EE8groupingEv W
_ZNKSt7__cxx1110moneypunctIwLb1EE10neg_formatEv W
_ZNKSt7__cxx1110moneypunctIwLb1EE10pos_formatEv W
_ZNKSt7__cxx1110moneypunctIwLb1EE11curr_symbolEv W
_ZNKSt7__cxx1110moneypunctIwLb1EE11do_groupingEv W
_ZNKSt7__cxx1110moneypunctIwLb1EE11frac_digitsEv W
_ZNKSt7__cxx1110moneypunctIwLb1EE13decimal_pointEv W
_ZNKSt7__cxx1110moneypunctIwLb1EE13do_neg_formatEv W
_ZNKSt7__cxx1110moneypunctIwLb1EE13do_pos_formatEv W
_ZNKSt7__cxx1110moneypunctIwLb1EE13negative_signEv W
_ZNKSt7__cxx1110moneypunctIwLb1EE13positive_signEv W
_ZNKSt7__cxx1110moneypunctIwLb1EE13thousands_sepEv W
_ZNKSt7__cxx1110moneypunctIwLb1EE14do_curr_symbolEv W
_ZNKSt7__cxx1110moneypunctIwLb1EE14do_frac_digitsEv W
_ZNKSt7__cxx1110moneypunctIwLb1EE16do_decimal_pointEv W
_ZNKSt7__cxx1110moneypunctIwLb1EE16do_negative_signEv W
_ZNKSt7__cxx1110moneypunctIwLb1EE16do_positive_signEv W
_ZNKSt7__cxx1110moneypunctIwLb1EE16do_thousands_sepEv W
_ZNKSt7__cxx1110moneypunctIwLb1EE8groupingEv W
_ZNKSt7__cxx1112basic_stringIcSt11char_traitsIcESaIcEE11_M_disjunctEPKc W
_ZNKSt7__cxx1112basic_stringIcSt11char_traitsIcESaIcEE11_M_is_localEv W
_ZNKSt7__cxx1112basic_stringIcSt11char_traitsIcESaIcEE12find_last_ofEPKcm W
_ZNKSt7__cxx1112basic_stringIcSt11char_traitsIcESaIcEE12find_last_ofEPKcmm W
_ZNKSt7__cxx1112basic_stringIcSt11char_traitsIcESaIcEE12find_last_ofERKS4_m W
_ZNKSt7__cxx1112basic_stringIcSt11char_traitsIcESaIcEE12find_last_ofEcm W
_ZNKSt7__cxx1112basic_stringIcSt11char_traitsIcESaIcEE13_M_local_dataEv W
_ZNKSt7__cxx1112basic_stringIcSt11char_traitsIcESaIcEE13find_first_ofEPKcm W
_ZNKSt7__cxx1112basic_stringIcSt11char_traitsIcESaIcEE13find_first_ofEPKcmm W
_ZNKSt7__cxx1112basic_stringIcSt11char_traitsIcESaIcEE13find_first_ofERKS4_m W
_ZNKSt7__cxx1112basic_stringIcSt11char_traitsIcESaIcEE13find_first_ofEcm W
_ZNKSt7__cxx1112basic_stringIcSt11char_traitsIcESaIcEE13get_allocatorEv W
_ZNKSt7__cxx1112basic_stringIcSt11char_traitsIcESaIcEE15_M_check_lengthEmmPKc W
_ZNKSt7__cxx1112basic_stringIcSt11char_traitsIcESaIcEE16_M_get_allocatorEv W
_ZNKSt7__cxx1112basic_stringIcSt11char_traitsIcESaIcEE16find_last_not_ofEPKcm W
_ZNKSt7__cxx1112basic_stringIcSt11char_traitsIcESaIcEE16find_last_not_ofEPKcmm W
_ZNKSt7__cxx1112basic_stringIcSt11char_traitsIcESaIcEE16find_last_not_ofERKS4_m W
_ZNKSt7__cxx1112basic_stringIcSt11char_traitsIcESaIcEE16find_last_not_ofEcm W
_ZNKSt7__cxx1112basic_stringIcSt11char_traitsIcESaIcEE17find_first_not_ofEPKcm W
_ZNKSt7__cxx1112basic_stringIcSt11char_traitsIcESaIcEE17find_first_not_ofEPKcmm W
_ZNKSt7__cxx1112basic_stringIcSt11char_traitsIcESaIcEE17find_first_not_ofERKS4_m W
_ZNKSt7__cxx1112basic_stringIcSt11char_traitsIcESaIcEE17find_first_not_ofEcm W
_ZNKSt7__cxx1112basic_stringIcSt11char_traitsIcESaIcEE2atEm W
_ZNKSt7__cxx1112basic_stringIcSt11char_traitsIcESaIcEE3endEv W
_ZNKSt7__cxx1112basic_stringIcSt11char_traitsIcESaIcEE4backEv W
_ZNKSt7__cxx1112basic_stringIcSt11char_traitsIcESaIcEE4cendEv W
_ZNKSt7__cxx1112basic_stringIcSt11char_traitsIcESaIcEE4copyEPcmm W
_ZNKSt7__cxx1112basic_stringIcSt11char_traitsIcESaIcEE4dataEv W
_ZNKSt7__cxx1112basic_stringIcSt11char_traitsIcESaIcEE4findEPKcm W
_ZNKSt7__cxx1112basic_stringIcSt11char_traitsIcESaIcEE4findEPKcmm W
_ZNKSt7__cxx1112basic_stringIcSt11char_traitsIcESaIcEE4findERKS4_m W
_ZNKSt7__cxx1112basic_stringIcSt11char_traitsIcESaIcEE4findEcm W
_ZNKSt7__cxx1112basic_stringIcSt11char_traitsIcESaIcEE4rendEv W
_ZNKSt7__cxx1112basic_stringIcSt11char_traitsIcESaIcEE4sizeEv W
_ZNKSt7__cxx1112basic_stringIcSt11char_traitsIcESaIcEE5beginEv W
_ZNKSt7__cxx1112basic_stringIcSt11char_traitsIcESaIcEE5c_strEv W
_ZNKSt7__cxx1112basic_stringIcSt11char_traitsIcESaIcEE5crendEv W
_ZNKSt7__cxx1112basic_stringIcSt11char_traitsIcESaIcEE5emptyEv W
_ZNKSt7__cxx1112basic_stringIcSt11char_traitsIcESaIcEE5frontEv W
_ZNKSt7__cxx1112basic_stringIcSt11char_traitsIcESaIcEE5rfindEPKcm W
_ZNKSt7__cxx1112basic_stringIcSt11char_traitsIcESaIcEE5rfindEPKcmm W
_ZNKSt7__cxx1112basic_stringIcSt11char_traitsIcESaIcEE5rfindERKS4_m W
_ZNKSt7__cxx1112basic_stringIcSt11char_traitsIcESaIcEE5rfindEcm W
_ZNKSt7__cxx1112basic_stringIcSt11char_traitsIcESaIcEE6cbeginEv W
_ZNKSt7__cxx1112basic_stringIcSt11char_traitsIcESaIcEE6lengthEv W
_ZNKSt7__cxx1112basic_stringIcSt11char_traitsIcESaIcEE6rbeginEv W
_ZNKSt7__cxx1112basic_stringIcSt11char_traitsIcESaIcEE6substrEmm W
_ZNKSt7__cxx1112basic_stringIcSt11char_traitsIcESaIcEE7_M_dataEv W
_ZNKSt7__cxx1112basic_stringIcSt11char_traitsIcESaIcEE7compareEPKc W
_ZNKSt7__cxx1112basic_stringIcSt11char_traitsIcESaIcEE7compareERKS4_ W
_ZNKSt7__cxx1112basic_stringIcSt11char_traitsIcESaIcEE7compareEmmPKc W
_ZNKSt7__cxx1112basic_stringIcSt11char_traitsIcESaIcEE7compareEmmPKcm W
_ZNKSt7__cxx1112basic_stringIcSt11char_traitsIcESaIcEE7compareEmmRKS4_ W
_ZNKSt7__cxx1112basic_stringIcSt11char_traitsIcESaIcEE7compareEmmRKS4_mm W
_ZNKSt7__cxx1112basic_stringIcSt11char_traitsIcESaIcEE7crbeginEv W
_ZNKSt7__cxx1112basic_stringIcSt11char_traitsIcESaIcEE8_M_checkEmPKc W
_ZNKSt7__cxx1112basic_stringIcSt11char_traitsIcESaIcEE8_M_limitEmm W
_ZNKSt7__cxx1112basic_stringIcSt11char_traitsIcESaIcEE8capacityEv W
_ZNKSt7__cxx1112basic_stringIcSt11char_traitsIcESaIcEE8max_sizeEv W
_ZNKSt7__cxx1112basic_stringIcSt11char_traitsIcESaIcEEixEm W
_ZNKSt7__cxx1112basic_stringIwSt11char_traitsIwESaIwEE11_M_disjunctEPKw W
_ZNKSt7__cxx1112basic_stringIwSt11char_traitsIwESaIwEE11_M_is_localEv W
_ZNKSt7__cxx1112basic_stringIwSt11char_traitsIwESaIwEE12find_last_ofEPKwm W
_ZNKSt7__cxx1112basic_stringIwSt11char_traitsIwESaIwEE12find_last_ofEPKwmm W
_ZNKSt7__cxx1112basic_stringIwSt11char_traitsIwESaIwEE12find_last_ofERKS4_m W
_ZNKSt7__cxx1112basic_stringIwSt11char_traitsIwESaIwEE12find_last_ofEwm W
_ZNKSt7__cxx1112basic_stringIwSt11char_traitsIwESaIwEE13_M_local_dataEv W
_ZNKSt7__cxx1112basic_stringIwSt11char_traitsIwESaIwEE13find_first_ofEPKwm W
_ZNKSt7__cxx1112basic_stringIwSt11char_traitsIwESaIwEE13find_first_ofEPKwmm W
_ZNKSt7__cxx1112basic_stringIwSt11char_traitsIwESaIwEE13find_first_ofERKS4_m W
_ZNKSt7__cxx1112basic_stringIwSt11char_traitsIwESaIwEE13find_first_ofEwm W
_ZNKSt7__cxx1112basic_stringIwSt11char_traitsIwESaIwEE13get_allocatorEv W
_ZNKSt7__cxx1112basic_stringIwSt11char_traitsIwESaIwEE15_M_check_lengthEmmPKc W
_ZNKSt7__cxx1112basic_stringIwSt11char_traitsIwESaIwEE16_M_get_allocatorEv W
_ZNKSt7__cxx1112basic_stringIwSt11char_traitsIwESaIwEE16find_last_not_ofEPKwm W
_ZNKSt7__cxx1112basic_stringIwSt11char_traitsIwESaIwEE16find_last_not_ofEPKwmm W
_ZNKSt7__cxx1112basic_stringIwSt11char_traitsIwESaIwEE16find_last_not_ofERKS4_m W
_ZNKSt7__cxx1112basic_stringIwSt11char_traitsIwESaIwEE16find_last_not_ofEwm W
_ZNKSt7__cxx1112basic_stringIwSt11char_traitsIwESaIwEE17find_first_not_ofEPKwm W
_ZNKSt7__cxx1112basic_stringIwSt11char_traitsIwESaIwEE17find_first_not_ofEPKwmm W
_ZNKSt7__cxx1112basic_stringIwSt11char_traitsIwESaIwEE17find_first_not_ofERKS4_m W
_ZNKSt7__cxx1112basic_stringIwSt11char_traitsIwESaIwEE17find_first_not_ofEwm W
_ZNKSt7__cxx1112basic_stringIwSt11char_traitsIwESaIwEE2atEm W
_ZNKSt7__cxx1112basic_stringIwSt11char_traitsIwESaIwEE3endEv W
_ZNKSt7__cxx1112basic_stringIwSt11char_traitsIwESaIwEE4backEv W
_ZNKSt7__cxx1112basic_stringIwSt11char_traitsIwESaIwEE4cendEv W
_ZNKSt7__cxx1112basic_stringIwSt11char_traitsIwESaIwEE4copyEPwmm W
_ZNKSt7__cxx1112basic_stringIwSt11char_traitsIwESaIwEE4dataEv W
_ZNKSt7__cxx1112basic_stringIwSt11char_traitsIwESaIwEE4findEPKwm W
_ZNKSt7__cxx1112basic_stringIwSt11char_traitsIwESaIwEE4findEPKwmm W
_ZNKSt7__cxx1112basic_stringIwSt11char_traitsIwESaIwEE4findERKS4_m W
_ZNKSt7__cxx1112basic_stringIwSt11char_traitsIwESaIwEE4findEwm W
_ZNKSt7__cxx1112basic_stringIwSt11char_traitsIwESaIwEE4rendEv W
_ZNKSt7__cxx1112basic_stringIwSt11char_traitsIwESaIwEE4sizeEv W
_ZNKSt7__cxx1112basic_stringIwSt11char_traitsIwESaIwEE5beginEv W
_ZNKSt7__cxx1112basic_stringIwSt11char_traitsIwESaIwEE5c_strEv W
_ZNKSt7__cxx1112basic_stringIwSt11char_traitsIwESaIwEE5crendEv W
_ZNKSt7__cxx1112basic_stringIwSt11char_traitsIwESaIwEE5emptyEv W
_ZNKSt7__cxx1112basic_stringIwSt11char_traitsIwESaIwEE5frontEv W
_ZNKSt7__cxx1112basic_stringIwSt11char_traitsIwESaIwEE5rfindEPKwm W
_ZNKSt7__cxx1112basic_stringIwSt11char_traitsIwESaIwEE5rfindEPKwmm W
_ZNKSt7__cxx1112basic_stringIwSt11char_traitsIwESaIwEE5rfindERKS4_m W
_ZNKSt7__cxx1112basic_stringIwSt11char_traitsIwESaIwEE5rfindEwm W
_ZNKSt7__cxx1112basic_stringIwSt11char_traitsIwESaIwEE6cbeginEv W
_ZNKSt7__cxx1112basic_stringIwSt11char_traitsIwESaIwEE6lengthEv W
_ZNKSt7__cxx1112basic_stringIwSt11char_traitsIwESaIwEE6rbeginEv W
_ZNKSt7__cxx1112basic_stringIwSt11char_traitsIwESaIwEE6substrEmm W
_ZNKSt7__cxx1112basic_stringIwSt11char_traitsIwESaIwEE7_M_dataEv W
_ZNKSt7__cxx1112basic_stringIwSt11char_traitsIwESaIwEE7compareEPKw W
_ZNKSt7__cxx1112basic_stringIwSt11char_traitsIwESaIwEE7compareERKS4_ W
_ZNKSt7__cxx1112basic_stringIwSt11char_traitsIwESaIwEE7compareEmmPKw W
_ZNKSt7__cxx1112basic_stringIwSt11char_traitsIwESaIwEE7compareEmmPKwm W
_ZNKSt7__cxx1112basic_stringIwSt11char_traitsIwESaIwEE7compareEmmRKS4_ W
_ZNKSt7__cxx1112basic_stringIwSt11char_traitsIwESaIwEE7compareEmmRKS4_mm W
_ZNKSt7__cxx1112basic_stringIwSt11char_traitsIwESaIwEE7crbeginEv W
_ZNKSt7__cxx1112basic_stringIwSt11char_traitsIwESaIwEE8_M_checkEmPKc W
_ZNKSt7__cxx1112basic_stringIwSt11char_traitsIwESaIwEE8_M_limitEmm W
_ZNKSt7__cxx1112basic_stringIwSt11char_traitsIwESaIwEE8capacityEv W
_ZNKSt7__cxx1112basic_stringIwSt11char_traitsIwESaIwEE8max_sizeEv W
_ZNKSt7__cxx1112basic_stringIwSt11char_traitsIwESaIwEEixEm W
_ZNKSt7__cxx1115basic_stringbufIcSt11char_traitsIcESaIcEE12_M_high_markEv W
_ZNKSt7__cxx1115basic_stringbufIcSt11char_traitsIcESaIcEE3strEv W
_ZNKSt7__cxx1115basic_stringbufIwSt11char_traitsIwESaIwEE12_M_high_markEv W
_ZNKSt7__cxx1115basic_stringbufIwSt11char_traitsIwESaIwEE3strEv W
_ZNKSt7__cxx1118basic_stringstreamIcSt11char_traitsIcESaIcEE3strEv W
_ZNKSt7__cxx1118basic_stringstreamIcSt11char_traitsIcESaIcEE5rdbufEv W
_ZNKSt7__cxx1118basic_stringstreamIwSt11char_traitsIwESaIwEE3strEv W
_ZNKSt7__cxx1118basic_stringstreamIwSt11char_traitsIwESaIwEE5rdbufEv W
_ZNKSt7__cxx1119basic_istringstreamIcSt11char_traitsIcESaIcEE3strEv W
_ZNKSt7__cxx1119basic_istringstreamIcSt11char_traitsIcESaIcEE5rdbufEv W
_ZNKSt7__cxx1119basic_istringstreamIwSt11char_traitsIwESaIwEE3strEv W
_ZNKSt7__cxx1119basic_istringstreamIwSt11char_traitsIwESaIwEE5rdbufEv W
_ZNKSt7__cxx1119basic_ostringstreamIcSt11char_traitsIcESaIcEE3strEv W
_ZNKSt7__cxx1119basic_ostringstreamIcSt11char_traitsIcESaIcEE5rdbufEv W
_ZNKSt7__cxx1119basic_ostringstreamIwSt11char_traitsIwESaIwEE3strEv W
_ZNKSt7__cxx1119basic_ostringstreamIwSt11char_traitsIwESaIwEE5rdbufEv W
_ZNKSt7__cxx117collateIcE10_M_compareEPKcS3_ T
_ZNKSt7__cxx117collateIcE10do_compareEPKcS3_S3_S3_ W
_ZNKSt7__cxx117collateIcE12_M_transformEPcPKcm T
_ZNKSt7__cxx117collateIcE12do_transformEPKcS3_ W
_ZNKSt7__cxx117collateIcE4hashEPKcS3_ W
_ZNKSt7__cxx117collateIcE7compareEPKcS3_S3_S3_ W
_ZNKSt7__cxx117collateIcE7do_hashEPKcS3_ W
_ZNKSt7__cxx117collateIcE9transformEPKcS3_ W
_ZNKSt7__cxx117collateIwE10_M_compareEPKwS3_ T
_ZNKSt7__cxx117collateIwE10do_compareEPKwS3_S3_S3_ W
_ZNKSt7__cxx117collateIwE12_M_transformEPwPKwm T
_ZNKSt7__cxx117collateIwE12do_transformEPKwS3_ W
_ZNKSt7__cxx117collateIwE4hashEPKwS3_ W
_ZNKSt7__cxx117collateIwE7compareEPKwS3_S3_S3_ W
_ZNKSt7__cxx117collateIwE7do_hashEPKwS3_ W
_ZNKSt7__cxx117collateIwE9transformEPKwS3_ W
_ZNKSt7__cxx118messagesIcE18_M_convert_to_charERKNS_12basic_stringIcSt11char_traitsIcESaIcEEE W
_ZNKSt7__cxx118messagesIcE20_M_convert_from_charEPc W
_ZNKSt7__cxx118messagesIcE3getEiiiRKNS_12basic_stringIcSt11char_traitsIcESaIcEEE W
_ZNKSt7__cxx118messagesIcE4openERKNS_12basic_stringIcSt11char_traitsIcESaIcEEERKSt6locale W
_ZNKSt7__cxx118messagesIcE4openERKNS_12basic_stringIcSt11char_traitsIcESaIcEEERKSt6localePKc W
_ZNKSt7__cxx118messagesIcE5closeEi W
_ZNKSt7__cxx118messagesIcE6do_getEiiiRKNS_12basic_stringIcSt11char_traitsIcESaIcEEE T
_ZNKSt7__cxx118messagesIcE7do_openERKNS_12basic_stringIcSt11char_traitsIcESaIcEEERKSt6locale T
_ZNKSt7__cxx118messagesIcE8do_closeEi T
_ZNKSt7__cxx118messagesIwE18_M_convert_to_charERKNS_12basic_stringIwSt11char_traitsIwESaIwEEE W
_ZNKSt7__cxx118messagesIwE20_M_convert_from_charEPc W
_ZNKSt7__cxx118messagesIwE3getEiiiRKNS_12basic_stringIwSt11char_traitsIwESaIwEEE W
_ZNKSt7__cxx118messagesIwE4openERKNS_12basic_stringIcSt11char_traitsIcESaIcEEERKSt6locale W
_ZNKSt7__cxx118messagesIwE4openERKNS_12basic_stringIcSt11char_traitsIcESaIcEEERKSt6localePKc W
_ZNKSt7__cxx118messagesIwE5closeEi W
_ZNKSt7__cxx118messagesIwE6do_getEiiiRKNS_12basic_stringIwSt11char_traitsIwESaIwEEE T
_ZNKSt7__cxx118messagesIwE7do_openERKNS_12basic_stringIcSt11char_traitsIcESaIcEEERKSt6locale T
_ZNKSt7__cxx118messagesIwE8do_closeEi T
_ZNKSt7__cxx118numpunctIcE11do_groupingEv W
_ZNKSt7__cxx118numpunctIcE11do_truenameEv W
_ZNKSt7__cxx118numpunctIcE12do_falsenameEv W
_ZNKSt7__cxx118numpunctIcE13decimal_pointEv W
_ZNKSt7__cxx118numpunctIcE13thousands_sepEv W
_ZNKSt7__cxx118numpunctIcE16do_decimal_pointEv W
_ZNKSt7__cxx118numpunctIcE16do_thousands_sepEv W
_ZNKSt7__cxx118numpunctIcE8groupingEv W
_ZNKSt7__cxx118numpunctIcE8truenameEv W
_ZNKSt7__cxx118numpunctIcE9falsenameEv W
_ZNKSt7__cxx118numpunctIwE11do_groupingEv W
_ZNKSt7__cxx118numpunctIwE11do_truenameEv W
_ZNKSt7__cxx118numpunctIwE12do_falsenameEv W
_ZNKSt7__cxx118numpunctIwE13decimal_pointEv W
_ZNKSt7__cxx118numpunctIwE13thousands_sepEv W
_ZNKSt7__cxx118numpunctIwE16do_decimal_pointEv W
_ZNKSt7__cxx118numpunctIwE16do_thousands_sepEv W
_ZNKSt7__cxx118numpunctIwE8groupingEv W
_ZNKSt7__cxx118numpunctIwE8truenameEv W
_ZNKSt7__cxx118numpunctIwE9falsenameEv W
_ZNKSt7__cxx118time_getIcSt19istreambuf_iteratorIcSt11char_traitsIcEEE10date_orderEv W
_ZNKSt7__cxx118time_getIcSt19istreambuf_iteratorIcSt11char_traitsIcEEE11do_get_dateES4_S4_RSt8ios_baseRSt12_Ios_IostateP2tm W
_ZNKSt7__cxx118time_getIcSt19istreambuf_iteratorIcSt11char_traitsIcEEE11do_get_timeES4_S4_RSt8ios_baseRSt12_Ios_IostateP2tm W
_ZNKSt7__cxx118time_getIcSt19istreambuf_iteratorIcSt11char_traitsIcEEE11do_get_yearES4_S4_RSt8ios_baseRSt12_Ios_IostateP2tm W
_ZNKSt7__cxx118time_getIcSt19istreambuf_iteratorIcSt11char_traitsIcEEE11get_weekdayES4_S4_RSt8ios_baseRSt12_Ios_IostateP2tm W
_ZNKSt7__cxx118time_getIcSt19istreambuf_iteratorIcSt11char_traitsIcEEE13do_date_orderEv W
_ZNKSt7__cxx118time_getIcSt19istreambuf_iteratorIcSt11char_traitsIcEEE13get_monthnameES4_S4_RSt8ios_baseRSt12_Ios_IostateP2tm W
_ZNKSt7__cxx118time_getIcSt19istreambuf_iteratorIcSt11char_traitsIcEEE14_M_extract_numES4_S4_RiiimRSt8ios_baseRSt12_Ios_Iostate W
_ZNKSt7__cxx118time_getIcSt19istreambuf_iteratorIcSt11char_traitsIcEEE14do_get_weekdayES4_S4_RSt8ios_baseRSt12_Ios_IostateP2tm W
_ZNKSt7__cxx118time_getIcSt19istreambuf_iteratorIcSt11char_traitsIcEEE15_M_extract_nameES4_S4_RiPPKcmRSt8ios_baseRSt12_Ios_Iostate W
_ZNKSt7__cxx118time_getIcSt19istreambuf_iteratorIcSt11char_traitsIcEEE16do_get_monthnameES4_S4_RSt8ios_baseRSt12_Ios_IostateP2tm W
_ZNKSt7__cxx118time_getIcSt19istreambuf_iteratorIcSt11char_traitsIcEEE21_M_extract_via_formatES4_S4_RSt8ios_baseRSt12_Ios_IostateP2tmPKc W
_ZNKSt7__cxx118time_getIcSt19istreambuf_iteratorIcSt11char_traitsIcEEE21_M_extract_via_formatES4_S4_RSt8ios_baseRSt12_Ios_IostateP2tmPKcRSt16__time_get_state W
_ZNKSt7__cxx118time_getIcSt19istreambuf_iteratorIcSt11char_traitsIcEEE24_M_extract_wday_or_monthES4_S4_RiPPKcmRSt8ios_baseRSt12_Ios_Iostate W
_ZNKSt7__cxx118time_getIcSt19istreambuf_iteratorIcSt11char_traitsIcEEE3getES4_S4_RSt8ios_baseRSt12_Ios_IostateP2tmPKcSD_ W
_ZNKSt7__cxx118time_getIcSt19istreambuf_iteratorIcSt11char_traitsIcEEE3getES4_S4_RSt8ios_baseRSt12_Ios_IostateP2tmcc W
_ZNKSt7__cxx118time_getIcSt19istreambuf_iteratorIcSt11char_traitsIcEEE6do_getES4_S4_RSt8ios_baseRSt12_Ios_IostateP2tmcc W
_ZNKSt7__cxx118time_getIcSt19istreambuf_iteratorIcSt11char_traitsIcEEE8get_dateES4_S4_RSt8ios_baseRSt12_Ios_IostateP2tm W
_ZNKSt7__cxx118time_getIcSt19istreambuf_iteratorIcSt11char_traitsIcEEE8get_timeES4_S4_RSt8ios_baseRSt12_Ios_IostateP2tm W
_ZNKSt7__cxx118time_getIcSt19istreambuf_iteratorIcSt11char_traitsIcEEE8get_yearES4_S4_RSt8ios_baseRSt12_Ios_IostateP2tm W
_ZNKSt7__cxx118time_getIwSt19istreambuf_iteratorIwSt11char_traitsIwEEE10date_orderEv W
_ZNKSt7__cxx118time_getIwSt19istreambuf_iteratorIwSt11char_traitsIwEEE11do_get_dateES4_S4_RSt8ios_baseRSt12_Ios_IostateP2tm W
_ZNKSt7__cxx118time_getIwSt19istreambuf_iteratorIwSt11char_traitsIwEEE11do_get_timeES4_S4_RSt8ios_baseRSt12_Ios_IostateP2tm W
_ZNKSt7__cxx118time_getIwSt19istreambuf_iteratorIwSt11char_traitsIwEEE11do_get_yearES4_S4_RSt8ios_baseRSt12_Ios_IostateP2tm W
_ZNKSt7__cxx118time_getIwSt19istreambuf_iteratorIwSt11char_traitsIwEEE11get_weekdayES4_S4_RSt8ios_baseRSt12_Ios_IostateP2tm W
_ZNKSt7__cxx118time_getIwSt19istreambuf_iteratorIwSt11char_traitsIwEEE13do_date_orderEv W
_ZNKSt7__cxx118time_getIwSt19istreambuf_iteratorIwSt11char_traitsIwEEE13get_monthnameES4_S4_RSt8ios_baseRSt12_Ios_IostateP2tm W
_ZNKSt7__cxx118time_getIwSt19istreambuf_iteratorIwSt11char_traitsIwEEE14_M_extract_numES4_S4_RiiimRSt8ios_baseRSt12_Ios_Iostate W
_ZNKSt7__cxx118time_getIwSt19istreambuf_iteratorIwSt11char_traitsIwEEE14do_get_weekdayES4_S4_RSt8ios_baseRSt12_Ios_IostateP2tm W
_ZNKSt7__cxx118time_getIwSt19istreambuf_iteratorIwSt11char_traitsIwEEE15_M_extract_nameES4_S4_RiPPKwmRSt8ios_baseRSt12_Ios_Iostate W
_ZNKSt7__cxx118time_getIwSt19istreambuf_iteratorIwSt11char_traitsIwEEE16do_get_monthnameES4_S4_RSt8ios_baseRSt12_Ios_IostateP2tm W
_ZNKSt7__cxx118time_getIwSt19istreambuf_iteratorIwSt11char_traitsIwEEE21_M_extract_via_formatES4_S4_RSt8ios_baseRSt12_Ios_IostateP2tmPKw W
_ZNKSt7__cxx118time_getIwSt19istreambuf_iteratorIwSt11char_traitsIwEEE21_M_extract_via_formatES4_S4_RSt8ios_baseRSt12_Ios_IostateP2tmPKwRSt16__time_get_state W
_ZNKSt7__cxx118time_getIwSt19istreambuf_iteratorIwSt11char_traitsIwEEE24_M_extract_wday_or_monthES4_S4_RiPPKwmRSt8ios_baseRSt12_Ios_Iostate W
_ZNKSt7__cxx118time_getIwSt19istreambuf_iteratorIwSt11char_traitsIwEEE3getES4_S4_RSt8ios_baseRSt12_Ios_IostateP2tmPKwSD_ W
_ZNKSt7__cxx118time_getIwSt19istreambuf_iteratorIwSt11char_traitsIwEEE3getES4_S4_RSt8ios_baseRSt12_Ios_IostateP2tmcc W
_ZNKSt7__cxx118time_getIwSt19istreambuf_iteratorIwSt11char_traitsIwEEE6do_getES4_S4_RSt8ios_baseRSt12_Ios_IostateP2tmcc W
_ZNKSt7__cxx118time_getIwSt19istreambuf_iteratorIwSt11char_traitsIwEEE8get_dateES4_S4_RSt8ios_baseRSt12_Ios_IostateP2tm W
_ZNKSt7__cxx118time_getIwSt19istreambuf_iteratorIwSt11char_traitsIwEEE8get_timeES4_S4_RSt8ios_baseRSt12_Ios_IostateP2tm W
_ZNKSt7__cxx118time_getIwSt19istreambuf_iteratorIwSt11char_traitsIwEEE8get_yearES4_S4_RSt8ios_baseRSt12_Ios_IostateP2tm W
_ZNKSt7__cxx119money_getIcSt19istreambuf_iteratorIcSt11char_traitsIcEEE10_M_extractILb0EEES4_S4_S4_RSt8ios_baseRSt12_Ios_IostateRNS_12basic_stringIcS3_SaIcEEE W
_ZNKSt7__cxx119money_getIcSt19istreambuf_iteratorIcSt11char_traitsIcEEE10_M_extractILb1EEES4_S4_S4_RSt8ios_baseRSt12_Ios_IostateRNS_12basic_stringIcS3_SaIcEEE W
_ZNKSt7__cxx119money_getIcSt19istreambuf_iteratorIcSt11char_traitsIcEEE3getES4_S4_bRSt8ios_baseRSt12_Ios_IostateRNS_12basic_stringIcS3_SaIcEEE W
_ZNKSt7__cxx119money_getIcSt19istreambuf_iteratorIcSt11char_traitsIcEEE3getES4_S4_bRSt8ios_baseRSt12_Ios_IostateRe W
_ZNKSt7__cxx119money_getIcSt19istreambuf_iteratorIcSt11char_traitsIcEEE6do_getES4_S4_bRSt8ios_baseRSt12_Ios_IostateRNS_12basic_stringIcS3_SaIcEEE W
_ZNKSt7__cxx119money_getIcSt19istreambuf_iteratorIcSt11char_traitsIcEEE6do_getES4_S4_bRSt8ios_baseRSt12_Ios_IostateRe W
_ZNKSt7__cxx119money_getIwSt19istreambuf_iteratorIwSt11char_traitsIwEEE10_M_extractILb0EEES4_S4_S4_RSt8ios_baseRSt12_Ios_IostateRNS_12basic_stringIcS2_IcESaIcEEE W
_ZNKSt7__cxx119money_getIwSt19istreambuf_iteratorIwSt11char_traitsIwEEE10_M_extractILb1EEES4_S4_S4_RSt8ios_baseRSt12_Ios_IostateRNS_12basic_stringIcS2_IcESaIcEEE W
_ZNKSt7__cxx119money_getIwSt19istreambuf_iteratorIwSt11char_traitsIwEEE3getES4_S4_bRSt8ios_baseRSt12_Ios_IostateRNS_12basic_stringIwS3_SaIwEEE W
_ZNKSt7__cxx119money_getIwSt19istreambuf_iteratorIwSt11char_traitsIwEEE3getES4_S4_bRSt8ios_baseRSt12_Ios_IostateRe W
_ZNKSt7__cxx119money_getIwSt19istreambuf_iteratorIwSt11char_traitsIwEEE6do_getES4_S4_bRSt8ios_baseRSt12_Ios_IostateRNS_12basic_stringIwS3_SaIwEEE W
_ZNKSt7__cxx119money_getIwSt19istreambuf_iteratorIwSt11char_traitsIwEEE6do_getES4_S4_bRSt8ios_baseRSt12_Ios_IostateRe W
_ZNKSt7__cxx119money_putIcSt19ostreambuf_iteratorIcSt11char_traitsIcEEE3putES4_bRSt8ios_basecRKNS_12basic_stringIcS3_SaIcEEE W
_ZNKSt7__cxx119money_putIcSt19ostreambuf_iteratorIcSt11char_traitsIcEEE3putES4_bRSt8ios_basece W
_ZNKSt7__cxx119money_putIcSt19ostreambuf_iteratorIcSt11char_traitsIcEEE6do_putES4_bRSt8ios_basecRKNS_12basic_stringIcS3_SaIcEEE W
_ZNKSt7__cxx119money_putIcSt19ostreambuf_iteratorIcSt11char_traitsIcEEE6do_putES4_bRSt8ios_basece W
_ZNKSt7__cxx119money_putIcSt19ostreambuf_iteratorIcSt11char_traitsIcEEE9_M_insertILb0EEES4_S4_RSt8ios_basecRKNS_12basic_stringIcS3_SaIcEEE W
_ZNKSt7__cxx119money_putIcSt19ostreambuf_iteratorIcSt11char_traitsIcEEE9_M_insertILb1EEES4_S4_RSt8ios_basecRKNS_12basic_stringIcS3_SaIcEEE W
_ZNKSt7__cxx119money_putIwSt19ostreambuf_iteratorIwSt11char_traitsIwEEE3putES4_bRSt8ios_basewRKNS_12basic_stringIwS3_SaIwEEE W
_ZNKSt7__cxx119money_putIwSt19ostreambuf_iteratorIwSt11char_traitsIwEEE3putES4_bRSt8ios_basewe W
_ZNKSt7__cxx119money_putIwSt19ostreambuf_iteratorIwSt11char_traitsIwEEE6do_putES4_bRSt8ios_basewRKNS_12basic_stringIwS3_SaIwEEE W
_ZNKSt7__cxx119money_putIwSt19ostreambuf_iteratorIwSt11char_traitsIwEEE6do_putES4_bRSt8ios_basewe W
_ZNKSt7__cxx119money_putIwSt19ostreambuf_iteratorIwSt11char_traitsIwEEE9_M_insertILb0EEES4_S4_RSt8ios_basewRKNS_12basic_stringIwS3_SaIwEEE W
_ZNKSt7__cxx119money_putIwSt19ostreambuf_iteratorIwSt11char_traitsIwEEE9_M_insertILb1EEES4_S4_RSt8ios_basewRKNS_12basic_stringIwS3_SaIwEEE W
_ZNKSt7codecvtIDiDu11__mbstate_tE10do_unshiftERS0_PDuS3_RS3_ T
_ZNKSt7codecvtIDiDu11__mbstate_tE11do_encodingEv T
_ZNKSt7codecvtIDiDu11__mbstate_tE13do_max_lengthEv T
_ZNKSt7codecvtIDiDu11__mbstate_tE16do_always_noconvEv T
_ZNKSt7codecvtIDiDu11__mbstate_tE5do_inERS0_PKDuS4_RS4_PDiS6_RS6_ T
_ZNKSt7codecvtIDiDu11__mbstate_tE6do_outERS0_PKDiS4_RS4_PDuS6_RS6_ T
_ZNKSt7codecvtIDiDu11__mbstate_tE9do_lengthERS0_PKDuS4_m T
_ZNKSt7codecvtIDic11__mbstate_tE10do_unshiftERS0_PcS3_RS3_ T
_ZNKSt7codecvtIDic11__mbstate_tE11do_encodingEv T
_ZNKSt7codecvtIDic11__mbstate_tE13do_max_lengthEv T
_ZNKSt7codecvtIDic11__mbstate_tE16do_always_noconvEv T
_ZNKSt7codecvtIDic11__mbstate_tE5do_inERS0_PKcS4_RS4_PDiS6_RS6_ T
_ZNKSt7codecvtIDic11__mbstate_tE6do_outERS0_PKDiS4_RS4_PcS6_RS6_ T
_ZNKSt7codecvtIDic11__mbstate_tE9do_lengthERS0_PKcS4_m T
_ZNKSt7codecvtIDsDu11__mbstate_tE10do_unshiftERS0_PDuS3_RS3_ T
_ZNKSt7codecvtIDsDu11__mbstate_tE11do_encodingEv T
_ZNKSt7codecvtIDsDu11__mbstate_tE13do_max_lengthEv T
_ZNKSt7codecvtIDsDu11__mbstate_tE16do_always_noconvEv T
_ZNKSt7codecvtIDsDu11__mbstate_tE5do_inERS0_PKDuS4_RS4_PDsS6_RS6_ T
_ZNKSt7codecvtIDsDu11__mbstate_tE6do_outERS0_PKDsS4_RS4_PDuS6_RS6_ T
_ZNKSt7codecvtIDsDu11__mbstate_tE9do_lengthERS0_PKDuS4_m T
_ZNKSt7codecvtIDsc11__mbstate_tE10do_unshiftERS0_PcS3_RS3_ T
_ZNKSt7codecvtIDsc11__mbstate_tE11do_encodingEv T
_ZNKSt7codecvtIDsc11__mbstate_tE13do_max_lengthEv T
_ZNKSt7codecvtIDsc11__mbstate_tE16do_always_noconvEv T
_ZNKSt7codecvtIDsc11__mbstate_tE5do_inERS0_PKcS4_RS4_PDsS6_RS6_ T
_ZNKSt7codecvtIDsc11__mbstate_tE6do_outERS0_PKDsS4_RS4_PcS6_RS6_ T
_ZNKSt7codecvtIDsc11__mbstate_tE9do_lengthERS0_PKcS4_m T
_ZNKSt7codecvtIcc11__mbstate_tE10do_unshiftERS0_PcS3_RS3_ T
_ZNKSt7codecvtIcc11__mbstate_tE11do_encodingEv T
_ZNKSt7codecvtIcc11__mbstate_tE13do_max_lengthEv T
_ZNKSt7codecvtIcc11__mbstate_tE16do_always_noconvEv T
_ZNKSt7codecvtIcc11__mbstate_tE5do_inERS0_PKcS4_RS4_PcS6_RS6_ T
_ZNKSt7codecvtIcc11__mbstate_tE6do_outERS0_PKcS4_RS4_PcS6_RS6_ T
_ZNKSt7codecvtIcc11__mbstate_tE9do_lengthERS0_PKcS4_m T
_ZNKSt7codecvtIwc11__mbstate_tE10do_unshiftERS0_PcS3_RS3_ T
_ZNKSt7codecvtIwc11__mbstate_tE11do_encodingEv T
_ZNKSt7codecvtIwc11__mbstate_tE13do_max_lengthEv T
_ZNKSt7codecvtIwc11__mbstate_tE16do_always_noconvEv T
_ZNKSt7codecvtIwc11__mbstate_tE5do_inERS0_PKcS4_RS4_PwS6_RS6_ T
_ZNKSt7codecvtIwc11__mbstate_tE6do_outERS0_PKwS4_RS4_PcS6_RS6_ T
_ZNKSt7codecvtIwc11__mbstate_tE9do_lengthERS0_PKcS4_m T
_ZNKSt7collateIcE10_M_compareEPKcS2_ T
_ZNKSt7collateIcE10do_compareEPKcS2_S2_S2_ W
_ZNKSt7collateIcE12_M_transformEPcPKcm T
_ZNKSt7collateIcE12do_transformEPKcS2_ W
_ZNKSt7collateIcE4hashEPKcS2_ W
_ZNKSt7collateIcE7compareEPKcS2_S2_S2_ W
_ZNKSt7collateIcE7do_hashEPKcS2_ W
_ZNKSt7collateIcE9transformEPKcS2_ W
_ZNKSt7collateIwE10_M_compareEPKwS2_ T
_ZNKSt7collateIwE10do_compareEPKwS2_S2_S2_ W
_ZNKSt7collateIwE12_M_transformEPwPKwm T
_ZNKSt7collateIwE12do_transformEPKwS2_ W
_ZNKSt7collateIwE4hashEPKwS2_ W
_ZNKSt7collateIwE7compareEPKwS2_S2_S2_ W
_ZNKSt7collateIwE7do_hashEPKwS2_ W
_ZNKSt7collateIwE9transformEPKwS2_ W
_ZNKSt7num_getIcSt19istreambuf_iteratorIcSt11char_traitsIcEEE14_M_extract_intB5cxx11IjEES3_S3_S3_RSt8ios_baseRSt12_Ios_IostateRT_ W
_ZNKSt7num_getIcSt19istreambuf_iteratorIcSt11char_traitsIcEEE14_M_extract_intB5cxx11IlEES3_S3_S3_RSt8ios_baseRSt12_Ios_IostateRT_ W
_ZNKSt7num_getIcSt19istreambuf_iteratorIcSt11char_traitsIcEEE14_M_extract_intB5cxx11ImEES3_S3_S3_RSt8ios_baseRSt12_Ios_IostateRT_ W
_ZNKSt7num_getIcSt19istreambuf_iteratorIcSt11char_traitsIcEEE14_M_extract_intB5cxx11ItEES3_S3_S3_RSt8ios_baseRSt12_Ios_IostateRT_ W
_ZNKSt7num_getIcSt19istreambuf_iteratorIcSt11char_traitsIcEEE14_M_extract_intB5cxx11IxEES3_S3_S3_RSt8ios_baseRSt12_Ios_IostateRT_ W
_ZNKSt7num_getIcSt19istreambuf_iteratorIcSt11char_traitsIcEEE14_M_extract_intB5cxx11IyEES3_S3_S3_RSt8ios_baseRSt12_Ios_IostateRT_ W
_ZNKSt7num_getIcSt19istreambuf_iteratorIcSt11char_traitsIcEEE14_M_extract_intIjEES3_S3_S3_RSt8ios_baseRSt12_Ios_IostateRT_ W
_ZNKSt7num_getIcSt19istreambuf_iteratorIcSt11char_traitsIcEEE14_M_extract_intIlEES3_S3_S3_RSt8ios_baseRSt12_Ios_IostateRT_ W
_ZNKSt7num_getIcSt19istreambuf_iteratorIcSt11char_traitsIcEEE14_M_extract_intImEES3_S3_S3_RSt8ios_baseRSt12_Ios_IostateRT_ W
_ZNKSt7num_getIcSt19istreambuf_iteratorIcSt11char_traitsIcEEE14_M_extract_intItEES3_S3_S3_RSt8ios_baseRSt12_Ios_IostateRT_ W
_ZNKSt7num_getIcSt19istreambuf_iteratorIcSt11char_traitsIcEEE14_M_extract_intIxEES3_S3_S3_RSt8ios_baseRSt12_Ios_IostateRT_ W
_ZNKSt7num_getIcSt19istreambuf_iteratorIcSt11char_traitsIcEEE14_M_extract_intIyEES3_S3_S3_RSt8ios_baseRSt12_Ios_IostateRT_ W
_ZNKSt7num_getIcSt19istreambuf_iteratorIcSt11char_traitsIcEEE16_M_extract_floatES3_S3_RSt8ios_baseRSt12_Ios_IostateRSs W
_ZNKSt7num_getIcSt19istreambuf_iteratorIcSt11char_traitsIcEEE3getES3_S3_RSt8ios_baseRSt12_Ios_IostateRPv W
_ZNKSt7num_getIcSt19istreambuf_iteratorIcSt11char_traitsIcEEE3getES3_S3_RSt8ios_baseRSt12_Ios_IostateRb W
_ZNKSt7num_getIcSt19istreambuf_iteratorIcSt11char_traitsIcEEE3getES3_S3_RSt8ios_baseRSt12_Ios_IostateRd W
_ZNKSt7num_getIcSt19istreambuf_iteratorIcSt11char_traitsIcEEE3getES3_S3_RSt8ios_baseRSt12_Ios_IostateRe W
_ZNKSt7num_getIcSt19istreambuf_iteratorIcSt11char_traitsIcEEE3getES3_S3_RSt8ios_baseRSt12_Ios_IostateRf W
_ZNKSt7num_getIcSt19istreambuf_iteratorIcSt11char_traitsIcEEE3getES3_S3_RSt8ios_baseRSt12_Ios_IostateRj W
_ZNKSt7num_getIcSt19istreambuf_iteratorIcSt11char_traitsIcEEE3getES3_S3_RSt8ios_baseRSt12_Ios_IostateRl W
_ZNKSt7num_getIcSt19istreambuf_iteratorIcSt11char_traitsIcEEE3getES3_S3_RSt8ios_baseRSt12_Ios_IostateRm W
_ZNKSt7num_getIcSt19istreambuf_iteratorIcSt11char_traitsIcEEE3getES3_S3_RSt8ios_baseRSt12_Ios_IostateRt W
_ZNKSt7num_getIcSt19istreambuf_iteratorIcSt11char_traitsIcEEE3getES3_S3_RSt8ios_baseRSt12_Ios_IostateRx W
_ZNKSt7num_getIcSt19istreambuf_iteratorIcSt11char_traitsIcEEE3getES3_S3_RSt8ios_baseRSt12_Ios_IostateRy W
_ZNKSt7num_getIcSt19istreambuf_iteratorIcSt11char_traitsIcEEE6do_getES3_S3_RSt8ios_baseRSt12_Ios_IostateRPv W
_ZNKSt7num_getIcSt19istreambuf_iteratorIcSt11char_traitsIcEEE6do_getES3_S3_RSt8ios_baseRSt12_Ios_IostateRb W
_ZNKSt7num_getIcSt19istreambuf_iteratorIcSt11char_traitsIcEEE6do_getES3_S3_RSt8ios_baseRSt12_Ios_IostateRd W
_ZNKSt7num_getIcSt19istreambuf_iteratorIcSt11char_traitsIcEEE6do_getES3_S3_RSt8ios_baseRSt12_Ios_IostateRe W
_ZNKSt7num_getIcSt19istreambuf_iteratorIcSt11char_traitsIcEEE6do_getES3_S3_RSt8ios_baseRSt12_Ios_IostateRf W
_ZNKSt7num_getIcSt19istreambuf_iteratorIcSt11char_traitsIcEEE6do_getES3_S3_RSt8ios_baseRSt12_Ios_IostateRj W
_ZNKSt7num_getIcSt19istreambuf_iteratorIcSt11char_traitsIcEEE6do_getES3_S3_RSt8ios_baseRSt12_Ios_IostateRl W
_ZNKSt7num_getIcSt19istreambuf_iteratorIcSt11char_traitsIcEEE6do_getES3_S3_RSt8ios_baseRSt12_Ios_IostateRm W
_ZNKSt7num_getIcSt19istreambuf_iteratorIcSt11char_traitsIcEEE6do_getES3_S3_RSt8ios_baseRSt12_Ios_IostateRt W
_ZNKSt7num_getIcSt19istreambuf_iteratorIcSt11char_traitsIcEEE6do_getES3_S3_RSt8ios_baseRSt12_Ios_IostateRx W
_ZNKSt7num_getIcSt19istreambuf_iteratorIcSt11char_traitsIcEEE6do_getES3_S3_RSt8ios_baseRSt12_Ios_IostateRy W
_ZNKSt7num_getIwSt19istreambuf_iteratorIwSt11char_traitsIwEEE14_M_extract_intB5cxx11IjEES3_S3_S3_RSt8ios_baseRSt12_Ios_IostateRT_ W
_ZNKSt7num_getIwSt19istreambuf_iteratorIwSt11char_traitsIwEEE14_M_extract_intB5cxx11IlEES3_S3_S3_RSt8ios_baseRSt12_Ios_IostateRT_ W
_ZNKSt7num_getIwSt19istreambuf_iteratorIwSt11char_traitsIwEEE14_M_extract_intB5cxx11ImEES3_S3_S3_RSt8ios_baseRSt12_Ios_IostateRT_ W
_ZNKSt7num_getIwSt19istreambuf_iteratorIwSt11char_traitsIwEEE14_M_extract_intB5cxx11ItEES3_S3_S3_RSt8ios_baseRSt12_Ios_IostateRT_ W
_ZNKSt7num_getIwSt19istreambuf_iteratorIwSt11char_traitsIwEEE14_M_extract_intB5cxx11IxEES3_S3_S3_RSt8ios_baseRSt12_Ios_IostateRT_ W
_ZNKSt7num_getIwSt19istreambuf_iteratorIwSt11char_traitsIwEEE14_M_extract_intB5cxx11IyEES3_S3_S3_RSt8ios_baseRSt12_Ios_IostateRT_ W
_ZNKSt7num_getIwSt19istreambuf_iteratorIwSt11char_traitsIwEEE14_M_extract_intIjEES3_S3_S3_RSt8ios_baseRSt12_Ios_IostateRT_ W
_ZNKSt7num_getIwSt19istreambuf_iteratorIwSt11char_traitsIwEEE14_M_extract_intIlEES3_S3_S3_RSt8ios_baseRSt12_Ios_IostateRT_ W
_ZNKSt7num_getIwSt19istreambuf_iteratorIwSt11char_traitsIwEEE14_M_extract_intImEES3_S3_S3_RSt8ios_baseRSt12_Ios_IostateRT_ W
_ZNKSt7num_getIwSt19istreambuf_iteratorIwSt11char_traitsIwEEE14_M_extract_intItEES3_S3_S3_RSt8ios_baseRSt12_Ios_IostateRT_ W
_ZNKSt7num_getIwSt19istreambuf_iteratorIwSt11char_traitsIwEEE14_M_extract_intIxEES3_S3_S3_RSt8ios_baseRSt12_Ios_IostateRT_ W
_ZNKSt7num_getIwSt19istreambuf_iteratorIwSt11char_traitsIwEEE14_M_extract_intIyEES3_S3_S3_RSt8ios_baseRSt12_Ios_IostateRT_ W
_ZNKSt7num_getIwSt19istreambuf_iteratorIwSt11char_traitsIwEEE16_M_extract_floatES3_S3_RSt8ios_baseRSt12_Ios_IostateRSs W
_ZNKSt7num_getIwSt19istreambuf_iteratorIwSt11char_traitsIwEEE3getES3_S3_RSt8ios_baseRSt12_Ios_IostateRPv W
_ZNKSt7num_getIwSt19istreambuf_iteratorIwSt11char_traitsIwEEE3getES3_S3_RSt8ios_baseRSt12_Ios_IostateRb W
_ZNKSt7num_getIwSt19istreambuf_iteratorIwSt11char_traitsIwEEE3getES3_S3_RSt8ios_baseRSt12_Ios_IostateRd W
_ZNKSt7num_getIwSt19istreambuf_iteratorIwSt11char_traitsIwEEE3getES3_S3_RSt8ios_baseRSt12_Ios_IostateRe W
_ZNKSt7num_getIwSt19istreambuf_iteratorIwSt11char_traitsIwEEE3getES3_S3_RSt8ios_baseRSt12_Ios_IostateRf W
_ZNKSt7num_getIwSt19istreambuf_iteratorIwSt11char_traitsIwEEE3getES3_S3_RSt8ios_baseRSt12_Ios_IostateRj W
_ZNKSt7num_getIwSt19istreambuf_iteratorIwSt11char_traitsIwEEE3getES3_S3_RSt8ios_baseRSt12_Ios_IostateRl W
_ZNKSt7num_getIwSt19istreambuf_iteratorIwSt11char_traitsIwEEE3getES3_S3_RSt8ios_baseRSt12_Ios_IostateRm W
_ZNKSt7num_getIwSt19istreambuf_iteratorIwSt11char_traitsIwEEE3getES3_S3_RSt8ios_baseRSt12_Ios_IostateRt W
_ZNKSt7num_getIwSt19istreambuf_iteratorIwSt11char_traitsIwEEE3getES3_S3_RSt8ios_baseRSt12_Ios_IostateRx W
_ZNKSt7num_getIwSt19istreambuf_iteratorIwSt11char_traitsIwEEE3getES3_S3_RSt8ios_baseRSt12_Ios_IostateRy W
_ZNKSt7num_getIwSt19istreambuf_iteratorIwSt11char_traitsIwEEE6do_getES3_S3_RSt8ios_baseRSt12_Ios_IostateRPv W
_ZNKSt7num_getIwSt19istreambuf_iteratorIwSt11char_traitsIwEEE6do_getES3_S3_RSt8ios_baseRSt12_Ios_IostateRb W
_ZNKSt7num_getIwSt19istreambuf_iteratorIwSt11char_traitsIwEEE6do_getES3_S3_RSt8ios_baseRSt12_Ios_IostateRd W
_ZNKSt7num_getIwSt19istreambuf_iteratorIwSt11char_traitsIwEEE6do_getES3_S3_RSt8ios_baseRSt12_Ios_IostateRe W
_ZNKSt7num_getIwSt19istreambuf_iteratorIwSt11char_traitsIwEEE6do_getES3_S3_RSt8ios_baseRSt12_Ios_IostateRf W
_ZNKSt7num_getIwSt19istreambuf_iteratorIwSt11char_traitsIwEEE6do_getES3_S3_RSt8ios_baseRSt12_Ios_IostateRj W
_ZNKSt7num_getIwSt19istreambuf_iteratorIwSt11char_traitsIwEEE6do_getES3_S3_RSt8ios_baseRSt12_Ios_IostateRl W
_ZNKSt7num_getIwSt19istreambuf_iteratorIwSt11char_traitsIwEEE6do_getES3_S3_RSt8ios_baseRSt12_Ios_IostateRm W
_ZNKSt7num_getIwSt19istreambuf_iteratorIwSt11char_traitsIwEEE6do_getES3_S3_RSt8ios_baseRSt12_Ios_IostateRt W
_ZNKSt7num_getIwSt19istreambuf_iteratorIwSt11char_traitsIwEEE6do_getES3_S3_RSt8ios_baseRSt12_Ios_IostateRx W
_ZNKSt7num_getIwSt19istreambuf_iteratorIwSt11char_traitsIwEEE6do_getES3_S3_RSt8ios_baseRSt12_Ios_IostateRy W
_ZNKSt7num_putIcSt19ostreambuf_iteratorIcSt11char_traitsIcEEE12_M_group_intEPKcmcRSt8ios_basePcS9_Ri W
_ZNKSt7num_putIcSt19ostreambuf_iteratorIcSt11char_traitsIcEEE13_M_insert_intIlEES3_S3_RSt8ios_basecT_ W
_ZNKSt7num_putIcSt19ostreambuf_iteratorIcSt11char_traitsIcEEE13_M_insert_intImEES3_S3_RSt8ios_basecT_ W
_ZNKSt7num_putIcSt19ostreambuf_iteratorIcSt11char_traitsIcEEE13_M_insert_intIxEES3_S3_RSt8ios_basecT_ W
_ZNKSt7num_putIcSt19ostreambuf_iteratorIcSt11char_traitsIcEEE13_M_insert_intIyEES3_S3_RSt8ios_basecT_ W
_ZNKSt7num_putIcSt19ostreambuf_iteratorIcSt11char_traitsIcEEE14_M_group_floatEPKcmcS6_PcS7_Ri W
_ZNKSt7num_putIcSt19ostreambuf_iteratorIcSt11char_traitsIcEEE15_M_insert_floatIdEES3_S3_RSt8ios_baseccT_ W
_ZNKSt7num_putIcSt19ostreambuf_iteratorIcSt11char_traitsIcEEE15_M_insert_floatIeEES3_S3_RSt8ios_baseccT_ W
_ZNKSt7num_putIcSt19ostreambuf_iteratorIcSt11char_traitsIcEEE3putES3_RSt8ios_basecPKv W
_ZNKSt7num_putIcSt19ostreambuf_iteratorIcSt11char_traitsIcEEE3putES3_RSt8ios_basecb W
_ZNKSt7num_putIcSt19ostreambuf_iteratorIcSt11char_traitsIcEEE3putES3_RSt8ios_basecd W
_ZNKSt7num_putIcSt19ostreambuf_iteratorIcSt11char_traitsIcEEE3putES3_RSt8ios_basece W
_ZNKSt7num_putIcSt19ostreambuf_iteratorIcSt11char_traitsIcEEE3putES3_RSt8ios_basecl W
_ZNKSt7num_putIcSt19ostreambuf_iteratorIcSt11char_traitsIcEEE3putES3_RSt8ios_basecm W
_ZNKSt7num_putIcSt19ostreambuf_iteratorIcSt11char_traitsIcEEE3putES3_RSt8ios_basecx W
_ZNKSt7num_putIcSt19ostreambuf_iteratorIcSt11char_traitsIcEEE3putES3_RSt8ios_basecy W
_ZNKSt7num_putIcSt19ostreambuf_iteratorIcSt11char_traitsIcEEE6_M_padEclRSt8ios_basePcPKcRi W
_ZNKSt7num_putIcSt19ostreambuf_iteratorIcSt11char_traitsIcEEE6do_putES3_RSt8ios_basecPKv W
_ZNKSt7num_putIcSt19ostreambuf_iteratorIcSt11char_traitsIcEEE6do_putES3_RSt8ios_basecb W
_ZNKSt7num_putIcSt19ostreambuf_iteratorIcSt11char_traitsIcEEE6do_putES3_RSt8ios_basecd W
_ZNKSt7num_putIcSt19ostreambuf_iteratorIcSt11char_traitsIcEEE6do_putES3_RSt8ios_basece W
_ZNKSt7num_putIcSt19ostreambuf_iteratorIcSt11char_traitsIcEEE6do_putES3_RSt8ios_basecl W
_ZNKSt7num_putIcSt19ostreambuf_iteratorIcSt11char_traitsIcEEE6do_putES3_RSt8ios_basecm W
_ZNKSt7num_putIcSt19ostreambuf_iteratorIcSt11char_traitsIcEEE6do_putES3_RSt8ios_basecx W
_ZNKSt7num_putIcSt19ostreambuf_iteratorIcSt11char_traitsIcEEE6do_putES3_RSt8ios_basecy W
_ZNKSt7num_putIwSt19ostreambuf_iteratorIwSt11char_traitsIwEEE12_M_group_intEPKcmwRSt8ios_basePwS9_Ri W
_ZNKSt7num_putIwSt19ostreambuf_iteratorIwSt11char_traitsIwEEE13_M_insert_intIlEES3_S3_RSt8ios_basewT_ W
_ZNKSt7num_putIwSt19ostreambuf_iteratorIwSt11char_traitsIwEEE13_M_insert_intImEES3_S3_RSt8ios_basewT_ W
_ZNKSt7num_putIwSt19ostreambuf_iteratorIwSt11char_traitsIwEEE13_M_insert_intIxEES3_S3_RSt8ios_basewT_ W
_ZNKSt7num_putIwSt19ostreambuf_iteratorIwSt11char_traitsIwEEE13_M_insert_intIyEES3_S3_RSt8ios_basewT_ W
_ZNKSt7num_putIwSt19ostreambuf_iteratorIwSt11char_traitsIwEEE14_M_group_floatEPKcmwPKwPwS9_Ri W
_ZNKSt7num_putIwSt19ostreambuf_iteratorIwSt11char_traitsIwEEE15_M_insert_floatIdEES3_S3_RSt8ios_basewcT_ W
_ZNKSt7num_putIwSt19ostreambuf_iteratorIwSt11char_traitsIwEEE15_M_insert_floatIeEES3_S3_RSt8ios_basewcT_ W
_ZNKSt7num_putIwSt19ostreambuf_iteratorIwSt11char_traitsIwEEE3putES3_RSt8ios_basewPKv W
_ZNKSt7num_putIwSt19ostreambuf_iteratorIwSt11char_traitsIwEEE3putES3_RSt8ios_basewb W
_ZNKSt7num_putIwSt19ostreambuf_iteratorIwSt11char_traitsIwEEE3putES3_RSt8ios_basewd W
_ZNKSt7num_putIwSt19ostreambuf_iteratorIwSt11char_traitsIwEEE3putES3_RSt8ios_basewe W
_ZNKSt7num_putIwSt19ostreambuf_iteratorIwSt11char_traitsIwEEE3putES3_RSt8ios_basewl W
_ZNKSt7num_putIwSt19ostreambuf_iteratorIwSt11char_traitsIwEEE3putES3_RSt8ios_basewm W
_ZNKSt7num_putIwSt19ostreambuf_iteratorIwSt11char_traitsIwEEE3putES3_RSt8ios_basewx W
_ZNKSt7num_putIwSt19ostreambuf_iteratorIwSt11char_traitsIwEEE3putES3_RSt8ios_basewy W
_ZNKSt7num_putIwSt19ostreambuf_iteratorIwSt11char_traitsIwEEE6_M_padEwlRSt8ios_basePwPKwRi W
_ZNKSt7num_putIwSt19ostreambuf_iteratorIwSt11char_traitsIwEEE6do_putES3_RSt8ios_basewPKv W
_ZNKSt7num_putIwSt19ostreambuf_iteratorIwSt11char_traitsIwEEE6do_putES3_RSt8ios_basewb W
_ZNKSt7num_putIwSt19ostreambuf_iteratorIwSt11char_traitsIwEEE6do_putES3_RSt8ios_basewd W
_ZNKSt7num_putIwSt19ostreambuf_iteratorIwSt11char_traitsIwEEE6do_putES3_RSt8ios_basewe W
_ZNKSt7num_putIwSt19ostreambuf_iteratorIwSt11char_traitsIwEEE6do_putES3_RSt8ios_basewl W
_ZNKSt7num_putIwSt19ostreambuf_iteratorIwSt11char_traitsIwEEE6do_putES3_RSt8ios_basewm W
_ZNKSt7num_putIwSt19ostreambuf_iteratorIwSt11char_traitsIwEEE6do_putES3_RSt8ios_basewx W
_ZNKSt7num_putIwSt19ostreambuf_iteratorIwSt11char_traitsIwEEE6do_putES3_RSt8ios_basewy W
_ZNKSt8Catalogs6_M_getEi T
_ZNKSt8bad_cast4whatEv T
_ZNKSt8ios_base7failure4whatEv T
_ZNKSt8ios_base7failureB5cxx114whatEv T
_ZNKSt8messagesIcE18_M_convert_to_charERKSs W
_ZNKSt8messagesIcE20_M_convert_from_charEPc W
_ZNKSt8messagesIcE3getEiiiRKSs W
_ZNKSt8messagesIcE4openERKSsRKSt6locale W
_ZNKSt8messagesIcE4openERKSsRKSt6localePKc W
_ZNKSt8messagesIcE5closeEi W
_ZNKSt8messagesIcE6do_getEiiiRKSs T
_ZNKSt8messagesIcE7do_openERKSsRKSt6locale T
_ZNKSt8messagesIcE8do_closeEi T
_ZNKSt8messagesIwE18_M_convert_to_charERKSbIwSt11char_traitsIwESaIwEE W
_ZNKSt8messagesIwE20_M_convert_from_charEPc W
_ZNKSt8messagesIwE3getEiiiRKSbIwSt11char_traitsIwESaIwEE W
_ZNKSt8messagesIwE4openERKSsRKSt6locale W
_ZNKSt8messagesIwE4openERKSsRKSt6localePKc W
_ZNKSt8messagesIwE5closeEi W
_ZNKSt8messagesIwE6do_getEiiiRKSbIwSt11char_traitsIwESaIwEE T
_ZNKSt8messagesIwE7do_openERKSsRKSt6locale T
_ZNKSt8messagesIwE8do_closeEi T
_ZNKSt8numpunctIcE11do_groupingEv W
_ZNKSt8numpunctIcE11do_truenameEv W
_ZNKSt8numpunctIcE12do_falsenameEv W
_ZNKSt8numpunctIcE13decimal_pointEv W
_ZNKSt8numpunctIcE13thousands_sepEv W
_ZNKSt8numpunctIcE16do_decimal_pointEv W
_ZNKSt8numpunctIcE16do_thousands_sepEv W
_ZNKSt8numpunctIcE8groupingEv W
_ZNKSt8numpunctIcE8truenameEv W
_ZNKSt8numpunctIcE9falsenameEv W
_ZNKSt8numpunctIwE11do_groupingEv W
_ZNKSt8numpunctIwE11do_truenameEv W
_ZNKSt8numpunctIwE12do_falsenameEv W
_ZNKSt8numpunctIwE13decimal_pointEv W
_ZNKSt8numpunctIwE13thousands_sepEv W
_ZNKSt8numpunctIwE16do_decimal_pointEv W
_ZNKSt8numpunctIwE16do_thousands_sepEv W
_ZNKSt8numpunctIwE8groupingEv W
_ZNKSt8numpunctIwE8truenameEv W
_ZNKSt8numpunctIwE9falsenameEv W
_ZNKSt8time_getIcSt19istreambuf_iteratorIcSt11char_traitsIcEEE10date_orderEv W
_ZNKSt8time_getIcSt19istreambuf_iteratorIcSt11char_traitsIcEEE11do_get_dateES3_S3_RSt8ios_baseRSt12_Ios_IostateP2tm W
_ZNKSt8time_getIcSt19istreambuf_iteratorIcSt11char_traitsIcEEE11do_get_timeES3_S3_RSt8ios_baseRSt12_Ios_IostateP2tm W
_ZNKSt8time_getIcSt19istreambuf_iteratorIcSt11char_traitsIcEEE11do_get_yearES3_S3_RSt8ios_baseRSt12_Ios_IostateP2tm W
_ZNKSt8time_getIcSt19istreambuf_iteratorIcSt11char_traitsIcEEE11get_weekdayES3_S3_RSt8ios_baseRSt12_Ios_IostateP2tm W
_ZNKSt8time_getIcSt19istreambuf_iteratorIcSt11char_traitsIcEEE13do_date_orderEv W
_ZNKSt8time_getIcSt19istreambuf_iteratorIcSt11char_traitsIcEEE13get_monthnameES3_S3_RSt8ios_baseRSt12_Ios_IostateP2tm W
_ZNKSt8time_getIcSt19istreambuf_iteratorIcSt11char_traitsIcEEE14_M_extract_numES3_S3_RiiimRSt8ios_baseRSt12_Ios_Iostate W
_ZNKSt8time_getIcSt19istreambuf_iteratorIcSt11char_traitsIcEEE14do_get_weekdayES3_S3_RSt8ios_baseRSt12_Ios_IostateP2tm W
_ZNKSt8time_getIcSt19istreambuf_iteratorIcSt11char_traitsIcEEE15_M_extract_nameES3_S3_RiPPKcmRSt8ios_baseRSt12_Ios_Iostate W
_ZNKSt8time_getIcSt19istreambuf_iteratorIcSt11char_traitsIcEEE16do_get_monthnameES3_S3_RSt8ios_baseRSt12_Ios_IostateP2tm W
_ZNKSt8time_getIcSt19istreambuf_iteratorIcSt11char_traitsIcEEE21_M_extract_via_formatES3_S3_RSt8ios_baseRSt12_Ios_IostateP2tmPKc W
_ZNKSt8time_getIcSt19istreambuf_iteratorIcSt11char_traitsIcEEE21_M_extract_via_formatES3_S3_RSt8ios_baseRSt12_Ios_IostateP2tmPKcRSt16__time_get_state W
_ZNKSt8time_getIcSt19istreambuf_iteratorIcSt11char_traitsIcEEE24_M_extract_wday_or_monthES3_S3_RiPPKcmRSt8ios_baseRSt12_Ios_Iostate W
_ZNKSt8time_getIcSt19istreambuf_iteratorIcSt11char_traitsIcEEE3getES3_S3_RSt8ios_baseRSt12_Ios_IostateP2tmPKcSC_ W
_ZNKSt8time_getIcSt19istreambuf_iteratorIcSt11char_traitsIcEEE3getES3_S3_RSt8ios_baseRSt12_Ios_IostateP2tmcc W
_ZNKSt8time_getIcSt19istreambuf_iteratorIcSt11char_traitsIcEEE6do_getES3_S3_RSt8ios_baseRSt12_Ios_IostateP2tmcc W
_ZNKSt8time_getIcSt19istreambuf_iteratorIcSt11char_traitsIcEEE8get_dateES3_S3_RSt8ios_baseRSt12_Ios_IostateP2tm W
_ZNKSt8time_getIcSt19istreambuf_iteratorIcSt11char_traitsIcEEE8get_timeES3_S3_RSt8ios_baseRSt12_Ios_IostateP2tm W
_ZNKSt8time_getIcSt19istreambuf_iteratorIcSt11char_traitsIcEEE8get_yearES3_S3_RSt8ios_baseRSt12_Ios_IostateP2tm W
_ZNKSt8time_getIwSt19istreambuf_iteratorIwSt11char_traitsIwEEE10date_orderEv W
_ZNKSt8time_getIwSt19istreambuf_iteratorIwSt11char_traitsIwEEE11do_get_dateES3_S3_RSt8ios_baseRSt12_Ios_IostateP2tm W
_ZNKSt8time_getIwSt19istreambuf_iteratorIwSt11char_traitsIwEEE11do_get_timeES3_S3_RSt8ios_baseRSt12_Ios_IostateP2tm W
_ZNKSt8time_getIwSt19istreambuf_iteratorIwSt11char_traitsIwEEE11do_get_yearES3_S3_RSt8ios_baseRSt12_Ios_IostateP2tm W
_ZNKSt8time_getIwSt19istreambuf_iteratorIwSt11char_traitsIwEEE11get_weekdayES3_S3_RSt8ios_baseRSt12_Ios_IostateP2tm W
_ZNKSt8time_getIwSt19istreambuf_iteratorIwSt11char_traitsIwEEE13do_date_orderEv W
_ZNKSt8time_getIwSt19istreambuf_iteratorIwSt11char_traitsIwEEE13get_monthnameES3_S3_RSt8ios_baseRSt12_Ios_IostateP2tm W
_ZNKSt8time_getIwSt19istreambuf_iteratorIwSt11char_traitsIwEEE14_M_extract_numES3_S3_RiiimRSt8ios_baseRSt12_Ios_Iostate W
_ZNKSt8time_getIwSt19istreambuf_iteratorIwSt11char_traitsIwEEE14do_get_weekdayES3_S3_RSt8ios_baseRSt12_Ios_IostateP2tm W
_ZNKSt8time_getIwSt19istreambuf_iteratorIwSt11char_traitsIwEEE15_M_extract_nameES3_S3_RiPPKwmRSt8ios_baseRSt12_Ios_Iostate W
_ZNKSt8time_getIwSt19istreambuf_iteratorIwSt11char_traitsIwEEE16do_get_monthnameES3_S3_RSt8ios_baseRSt12_Ios_IostateP2tm W
_ZNKSt8time_getIwSt19istreambuf_iteratorIwSt11char_traitsIwEEE21_M_extract_via_formatES3_S3_RSt8ios_baseRSt12_Ios_IostateP2tmPKw W
_ZNKSt8time_getIwSt19istreambuf_iteratorIwSt11char_traitsIwEEE21_M_extract_via_formatES3_S3_RSt8ios_baseRSt12_Ios_IostateP2tmPKwRSt16__time_get_state W
_ZNKSt8time_getIwSt19istreambuf_iteratorIwSt11char_traitsIwEEE24_M_extract_wday_or_monthES3_S3_RiPPKwmRSt8ios_baseRSt12_Ios_Iostate W
_ZNKSt8time_getIwSt19istreambuf_iteratorIwSt11char_traitsIwEEE3getES3_S3_RSt8ios_baseRSt12_Ios_IostateP2tmPKwSC_ W
_ZNKSt8time_getIwSt19istreambuf_iteratorIwSt11char_traitsIwEEE3getES3_S3_RSt8ios_baseRSt12_Ios_IostateP2tmcc W
_ZNKSt8time_getIwSt19istreambuf_iteratorIwSt11char_traitsIwEEE6do_getES3_S3_RSt8ios_baseRSt12_Ios_IostateP2tmcc W
_ZNKSt8time_getIwSt19istreambuf_iteratorIwSt11char_traitsIwEEE8get_dateES3_S3_RSt8ios_baseRSt12_Ios_IostateP2tm W
_ZNKSt8time_getIwSt19istreambuf_iteratorIwSt11char_traitsIwEEE8get_timeES3_S3_RSt8ios_baseRSt12_Ios_IostateP2tm W
_ZNKSt8time_getIwSt19istreambuf_iteratorIwSt11char_traitsIwEEE8get_yearES3_S3_RSt8ios_baseRSt12_Ios_IostateP2tm W
_ZNKSt8time_putIcSt19ostreambuf_iteratorIcSt11char_traitsIcEEE3putES3_RSt8ios_basecPK2tmPKcSB_ W
_ZNKSt8time_putIcSt19ostreambuf_iteratorIcSt11char_traitsIcEEE3putES3_RSt8ios_basecPK2tmcc W
_ZNKSt8time_putIcSt19ostreambuf_iteratorIcSt11char_traitsIcEEE6do_putES3_RSt8ios_basecPK2tmcc W
_ZNKSt8time_putIwSt19ostreambuf_iteratorIwSt11char_traitsIwEEE3putES3_RSt8ios_basewPK2tmPKwSB_ W
_ZNKSt8time_putIwSt19ostreambuf_iteratorIwSt11char_traitsIwEEE3putES3_RSt8ios_basewPK2tmcc W
_ZNKSt8time_putIwSt19ostreambuf_iteratorIwSt11char_traitsIwEEE6do_putES3_RSt8ios_basewPK2tmcc W
_ZNKSt9bad_alloc4whatEv T
_ZNKSt9basic_iosIcSt11char_traitsIcEE10exceptionsEv W
_ZNKSt9basic_iosIcSt11char_traitsIcEE3badEv W
_ZNKSt9basic_iosIcSt11char_traitsIcEE3eofEv W
_ZNKSt9basic_iosIcSt11char_traitsIcEE3tieEv W
_ZNKSt9basic_iosIcSt11char_traitsIcEE4failEv W
_ZNKSt9basic_iosIcSt11char_traitsIcEE4fillEv W
_ZNKSt9basic_iosIcSt11char_traitsIcEE4goodEv W
_ZNKSt9basic_iosIcSt11char_traitsIcEE5rdbufEv W
_ZNKSt9basic_iosIcSt11char_traitsIcEE5widenEc W
_ZNKSt9basic_iosIcSt11char_traitsIcEE6narrowEcc W
_ZNKSt9basic_iosIcSt11char_traitsIcEE7rdstateEv W
_ZNKSt9basic_iosIcSt11char_traitsIcEEcvPvEv W
_ZNKSt9basic_iosIcSt11char_traitsIcEEcvbEv W
_ZNKSt9basic_iosIcSt11char_traitsIcEEntEv W
_ZNKSt9basic_iosIwSt11char_traitsIwEE10exceptionsEv W
_ZNKSt9basic_iosIwSt11char_traitsIwEE3badEv W
_ZNKSt9basic_iosIwSt11char_traitsIwEE3eofEv W
_ZNKSt9basic_iosIwSt11char_traitsIwEE3tieEv W
_ZNKSt9basic_iosIwSt11char_traitsIwEE4failEv W
_ZNKSt9basic_iosIwSt11char_traitsIwEE4fillEv W
_ZNKSt9basic_iosIwSt11char_traitsIwEE4goodEv W
_ZNKSt9basic_iosIwSt11char_traitsIwEE5rdbufEv W
_ZNKSt9basic_iosIwSt11char_traitsIwEE5widenEc W
_ZNKSt9basic_iosIwSt11char_traitsIwEE6narrowEwc W
_ZNKSt9basic_iosIwSt11char_traitsIwEE7rdstateEv W
_ZNKSt9basic_iosIwSt11char_traitsIwEEcvPvEv W
_ZNKSt9basic_iosIwSt11char_traitsIwEEcvbEv W
_ZNKSt9basic_iosIwSt11char_traitsIwEEntEv W
_ZNKSt9exception4whatEv T
_ZNKSt9money_getIcSt19istreambuf_iteratorIcSt11char_traitsIcEEE10_M_extractILb0EEES3_S3_S3_RSt8ios_baseRSt12_Ios_IostateRSs W
_ZNKSt9money_getIcSt19istreambuf_iteratorIcSt11char_traitsIcEEE10_M_extractILb1EEES3_S3_S3_RSt8ios_baseRSt12_Ios_IostateRSs W
_ZNKSt9money_getIcSt19istreambuf_iteratorIcSt11char_traitsIcEEE3getES3_S3_bRSt8ios_baseRSt12_Ios_IostateRSs W
_ZNKSt9money_getIcSt19istreambuf_iteratorIcSt11char_traitsIcEEE3getES3_S3_bRSt8ios_baseRSt12_Ios_IostateRe W
_ZNKSt9money_getIcSt19istreambuf_iteratorIcSt11char_traitsIcEEE6do_getES3_S3_bRSt8ios_baseRSt12_Ios_IostateRSs W
_ZNKSt9money_getIcSt19istreambuf_iteratorIcSt11char_traitsIcEEE6do_getES3_S3_bRSt8ios_baseRSt12_Ios_IostateRe W
_ZNKSt9money_getIwSt19istreambuf_iteratorIwSt11char_traitsIwEEE10_M_extractILb0EEES3_S3_S3_RSt8ios_baseRSt12_Ios_IostateRSs W
_ZNKSt9money_getIwSt19istreambuf_iteratorIwSt11char_traitsIwEEE10_M_extractILb1EEES3_S3_S3_RSt8ios_baseRSt12_Ios_IostateRSs W
_ZNKSt9money_getIwSt19istreambuf_iteratorIwSt11char_traitsIwEEE3getES3_S3_bRSt8ios_baseRSt12_Ios_IostateRSbIwS2_SaIwEE W
_ZNKSt9money_getIwSt19istreambuf_iteratorIwSt11char_traitsIwEEE3getES3_S3_bRSt8ios_baseRSt12_Ios_IostateRe W
_ZNKSt9money_getIwSt19istreambuf_iteratorIwSt11char_traitsIwEEE6do_getES3_S3_bRSt8ios_baseRSt12_Ios_IostateRSbIwS2_SaIwEE W
_ZNKSt9money_getIwSt19istreambuf_iteratorIwSt11char_traitsIwEEE6do_getES3_S3_bRSt8ios_baseRSt12_Ios_IostateRe W
_ZNKSt9money_putIcSt19ostreambuf_iteratorIcSt11char_traitsIcEEE3putES3_bRSt8ios_basecRKSs W
_ZNKSt9money_putIcSt19ostreambuf_iteratorIcSt11char_traitsIcEEE3putES3_bRSt8ios_basece W
_ZNKSt9money_putIcSt19ostreambuf_iteratorIcSt11char_traitsIcEEE6do_putES3_bRSt8ios_basecRKSs W
_ZNKSt9money_putIcSt19ostreambuf_iteratorIcSt11char_traitsIcEEE6do_putES3_bRSt8ios_basece W
_ZNKSt9money_putIcSt19ostreambuf_iteratorIcSt11char_traitsIcEEE9_M_insertILb0EEES3_S3_RSt8ios_basecRKSs W
_ZNKSt9money_putIcSt19ostreambuf_iteratorIcSt11char_traitsIcEEE9_M_insertILb1EEES3_S3_RSt8ios_basecRKSs W
_ZNKSt9money_putIwSt19ostreambuf_iteratorIwSt11char_traitsIwEEE3putES3_bRSt8ios_basewRKSbIwS2_SaIwEE W
_ZNKSt9money_putIwSt19ostreambuf_iteratorIwSt11char_traitsIwEEE3putES3_bRSt8ios_basewe W
_ZNKSt9money_putIwSt19ostreambuf_iteratorIwSt11char_traitsIwEEE6do_putES3_bRSt8ios_basewRKSbIwS2_SaIwEE W
_ZNKSt9money_putIwSt19ostreambuf_iteratorIwSt11char_traitsIwEEE6do_putES3_bRSt8ios_basewe W
_ZNKSt9money_putIwSt19ostreambuf_iteratorIwSt11char_traitsIwEEE9_M_insertILb0EEES3_S3_RSt8ios_basewRKSbIwS2_SaIwEE W
_ZNKSt9money_putIwSt19ostreambuf_iteratorIwSt11char_traitsIwEEE9_M_insertILb1EEES3_S3_RSt8ios_basewRKSbIwS2_SaIwEE W
_ZNKSt9type_info10__do_catchEPKS_PPvj T
_ZNKSt9type_info11__do_upcastEPKN10__cxxabiv117__class_type_infoEPPv T
_ZNKSt9type_info14__is_pointer_pEv T
_ZNKSt9type_info15__is_function_pEv T
_ZNSbIwSt11char_traitsIwESaIwEE10_S_compareEmm W
_ZNSbIwSt11char_traitsIwESaIwEE12_Alloc_hiderC1EPwRKS1_ W
_ZNSbIwSt11char_traitsIwESaIwEE12_Alloc_hiderC2EPwRKS1_ W
_ZNSbIwSt11char_traitsIwESaIwEE12_M_leak_hardEv W
_ZNSbIwSt11char_traitsIwESaIwEE12_S_constructEmwRKS1_ W
_ZNSbIwSt11char_traitsIwESaIwEE12_S_constructIN9__gnu_cxx17__normal_iteratorIPwS2_EEEES6_T_S8_RKS1_St20forward_iterator_tag W
_ZNSbIwSt11char_traitsIwESaIwEE12_S_constructIPKwEEPwT_S7_RKS1_St20forward_iterator_tag W
_ZNSbIwSt11char_traitsIwESaIwEE12_S_constructIPwEES4_T_S5_RKS1_St20forward_iterator_tag W
_ZNSbIwSt11char_traitsIwESaIwEE12_S_empty_repEv W
_ZNSbIwSt11char_traitsIwESaIwEE13_S_copy_charsEPwN9__gnu_cxx17__normal_iteratorIPKwS2_EES8_ W
_ZNSbIwSt11char_traitsIwESaIwEE13_S_copy_charsEPwN9__gnu_cxx17__normal_iteratorIS3_S2_EES6_ W
_ZNSbIwSt11char_traitsIwESaIwEE13_S_copy_charsEPwPKwS5_ W
_ZNSbIwSt11char_traitsIwESaIwEE13_S_copy_charsEPwS3_S3_ W
_ZNSbIwSt11char_traitsIwESaIwEE13shrink_to_fitEv W
_ZNSbIwSt11char_traitsIwESaIwEE14_M_replace_auxEmmmw W
_ZNSbIwSt11char_traitsIwESaIwEE15_M_replace_safeEmmPKwm W
_ZNSbIwSt11char_traitsIwESaIwEE18_S_construct_aux_2EmwRKS1_ W
_ZNSbIwSt11char_traitsIwESaIwEE2atEm W
_ZNSbIwSt11char_traitsIwESaIwEE3endEv W
_ZNSbIwSt11char_traitsIwESaIwEE4_Rep10_M_destroyERKS1_ W
_ZNSbIwSt11char_traitsIwESaIwEE4_Rep10_M_disposeERKS1_ W
_ZNSbIwSt11char_traitsIwESaIwEE4_Rep10_M_refcopyEv W
_ZNSbIwSt11char_traitsIwESaIwEE4_Rep10_M_refdataEv W
_ZNSbIwSt11char_traitsIwESaIwEE4_Rep11_S_max_sizeE u
_ZNSbIwSt11char_traitsIwESaIwEE4_Rep11_S_terminalE u
_ZNSbIwSt11char_traitsIwESaIwEE4_Rep12_S_empty_repEv W
_ZNSbIwSt11char_traitsIwESaIwEE4_Rep13_M_set_leakedEv W
_ZNSbIwSt11char_traitsIwESaIwEE4_Rep15_M_set_sharableEv W
_ZNSbIwSt11char_traitsIwESaIwEE4_Rep20_S_empty_rep_storageE u
_ZNSbIwSt11char_traitsIwESaIwEE4_Rep26_M_set_length_and_sharableEm W
_ZNSbIwSt11char_traitsIwESaIwEE4_Rep7_M_grabERKS1_S5_ W
_ZNSbIwSt11char_traitsIwESaIwEE4_Rep8_M_cloneERKS1_m W
_ZNSbIwSt11char_traitsIwESaIwEE4_Rep9_S_createEmmRKS1_ W
_ZNSbIwSt11char_traitsIwESaIwEE4backEv W
_ZNSbIwSt11char_traitsIwESaIwEE4nposE u
_ZNSbIwSt11char_traitsIwESaIwEE4rendEv W
_ZNSbIwSt11char_traitsIwESaIwEE4swapERS2_ W
_ZNSbIwSt11char_traitsIwESaIwEE5beginEv W
_ZNSbIwSt11char_traitsIwESaIwEE5clearEv W
_ZNSbIwSt11char_traitsIwESaIwEE5eraseEN9__gnu_cxx17__normal_iteratorIPwS2_EE W
_ZNSbIwSt11char_traitsIwESaIwEE5eraseEN9__gnu_cxx17__normal_iteratorIPwS2_EES6_ W
_ZNSbIwSt11char_traitsIwESaIwEE5eraseEmm W
_ZNSbIwSt11char_traitsIwESaIwEE5frontEv W
_ZNSbIwSt11char_traitsIwESaIwEE6appendEPKw W
_ZNSbIwSt11char_traitsIwESaIwEE6appendEPKwm W
_ZNSbIwSt11char_traitsIwESaIwEE6appendERKS2_ W
_ZNSbIwSt11char_traitsIwESaIwEE6appendERKS2_mm W
_ZNSbIwSt11char_traitsIwESaIwEE6appendESt16initializer_listIwE W
_ZNSbIwSt11char_traitsIwESaIwEE6appendEmw W
_ZNSbIwSt11char_traitsIwESaIwEE6assignEOS2_ W
_ZNSbIwSt11char_traitsIwESaIwEE6assignEPKw W
_ZNSbIwSt11char_traitsIwESaIwEE6assignEPKwm W
_ZNSbIwSt11char_traitsIwESaIwEE6assignERKS2_ W
_ZNSbIwSt11char_traitsIwESaIwEE6assignERKS2_mm W
_ZNSbIwSt11char_traitsIwESaIwEE6assignESt16initializer_listIwE W
_ZNSbIwSt11char_traitsIwESaIwEE6assignEmw W
_ZNSbIwSt11char_traitsIwESaIwEE6insertEN9__gnu_cxx17__normal_iteratorIPwS2_EESt16initializer_listIwE W
_ZNSbIwSt11char_traitsIwESaIwEE6insertEN9__gnu_cxx17__normal_iteratorIPwS2_EEmw W
_ZNSbIwSt11char_traitsIwESaIwEE6insertEN9__gnu_cxx17__normal_iteratorIPwS2_EEw W
_ZNSbIwSt11char_traitsIwESaIwEE6insertEmPKw W
_ZNSbIwSt11char_traitsIwESaIwEE6insertEmPKwm W
_ZNSbIwSt11char_traitsIwESaIwEE6insertEmRKS2_ W
_ZNSbIwSt11char_traitsIwESaIwEE6insertEmRKS2_mm W
_ZNSbIwSt11char_traitsIwESaIwEE6insertEmmw W
_ZNSbIwSt11char_traitsIwESaIwEE6rbeginEv W
_ZNSbIwSt11char_traitsIwESaIwEE6resizeEm W
_ZNSbIwSt11char_traitsIwESaIwEE6resizeEmw W
_ZNSbIwSt11char_traitsIwESaIwEE7_M_copyEPwPKwm W
_ZNSbIwSt11char_traitsIwESaIwEE7_M_dataEPw W
_ZNSbIwSt11char_traitsIwESaIwEE7_M_leakEv W
_ZNSbIwSt11char_traitsIwESaIwEE7_M_moveEPwPKwm W
_ZNSbIwSt11char_traitsIwESaIwEE7replaceEN9__gnu_cxx17__normal_iteratorIPwS2_EES6_NS4_IPKwS2_EES9_ W
_ZNSbIwSt11char_traitsIwESaIwEE7replaceEN9__gnu_cxx17__normal_iteratorIPwS2_EES6_PKw W
_ZNSbIwSt11char_traitsIwESaIwEE7replaceEN9__gnu_cxx17__normal_iteratorIPwS2_EES6_PKwS8_ W
_ZNSbIwSt11char_traitsIwESaIwEE7replaceEN9__gnu_cxx17__normal_iteratorIPwS2_EES6_PKwm W
_ZNSbIwSt11char_traitsIwESaIwEE7replaceEN9__gnu_cxx17__normal_iteratorIPwS2_EES6_RKS2_ W
_ZNSbIwSt11char_traitsIwESaIwEE7replaceEN9__gnu_cxx17__normal_iteratorIPwS2_EES6_S5_S5_ W
_ZNSbIwSt11char_traitsIwESaIwEE7replaceEN9__gnu_cxx17__normal_iteratorIPwS2_EES6_S6_S6_ W
_ZNSbIwSt11char_traitsIwESaIwEE7replaceEN9__gnu_cxx17__normal_iteratorIPwS2_EES6_St16initializer_listIwE W
_ZNSbIwSt11char_traitsIwESaIwEE7replaceEN9__gnu_cxx17__normal_iteratorIPwS2_EES6_mw W
_ZNSbIwSt11char_traitsIwESaIwEE7replaceEmmPKw W
_ZNSbIwSt11char_traitsIwESaIwEE7replaceEmmPKwm W
_ZNSbIwSt11char_traitsIwESaIwEE7replaceEmmRKS2_ W
_ZNSbIwSt11char_traitsIwESaIwEE7replaceEmmRKS2_mm W
_ZNSbIwSt11char_traitsIwESaIwEE7replaceEmmmw W
_ZNSbIwSt11char_traitsIwESaIwEE7reserveEm W
_ZNSbIwSt11char_traitsIwESaIwEE7reserveEv W
_ZNSbIwSt11char_traitsIwESaIwEE8pop_backEv W
_ZNSbIwSt11char_traitsIwESaIwEE9_M_assignEPwmw W
_ZNSbIwSt11char_traitsIwESaIwEE9_M_mutateEmmm W
_ZNSbIwSt11char_traitsIwESaIwEE9push_backEw W
_ZNSbIwSt11char_traitsIwESaIwEEC1EOS2_ W
_ZNSbIwSt11char_traitsIwESaIwEEC1EOS2_RKS1_ W
_ZNSbIwSt11char_traitsIwESaIwEEC1EPKwRKS1_ W
_ZNSbIwSt11char_traitsIwESaIwEEC1EPKwmRKS1_ W
_ZNSbIwSt11char_traitsIwESaIwEEC1ERKS1_ W
_ZNSbIwSt11char_traitsIwESaIwEEC1ERKS2_ W
_ZNSbIwSt11char_traitsIwESaIwEEC1ERKS2_RKS1_ W
_ZNSbIwSt11char_traitsIwESaIwEEC1ERKS2_mRKS1_ W
_ZNSbIwSt11char_traitsIwESaIwEEC1ERKS2_mm W
_ZNSbIwSt11char_traitsIwESaIwEEC1ERKS2_mmRKS1_ W
_ZNSbIwSt11char_traitsIwESaIwEEC1ESt16initializer_listIwERKS1_ W
_ZNSbIwSt11char_traitsIwESaIwEEC1EmwRKS1_ W
_ZNSbIwSt11char_traitsIwESaIwEEC1Ev W
_ZNSbIwSt11char_traitsIwESaIwEEC1IN9__gnu_cxx17__normal_iteratorIPwS2_EEEET_S8_RKS1_ W
_ZNSbIwSt11char_traitsIwESaIwEEC1IPKwEET_S6_RKS1_ W
_ZNSbIwSt11char_traitsIwESaIwEEC1IPwEET_S5_RKS1_ W
_ZNSbIwSt11char_traitsIwESaIwEEC2EOS2_ W
_ZNSbIwSt11char_traitsIwESaIwEEC2EOS2_RKS1_ W
_ZNSbIwSt11char_traitsIwESaIwEEC2EPKwRKS1_ W
_ZNSbIwSt11char_traitsIwESaIwEEC2EPKwmRKS1_ W
_ZNSbIwSt11char_traitsIwESaIwEEC2ERKS1_ W
_ZNSbIwSt11char_traitsIwESaIwEEC2ERKS2_ W
_ZNSbIwSt11char_traitsIwESaIwEEC2ERKS2_RKS1_ W
_ZNSbIwSt11char_traitsIwESaIwEEC2ERKS2_mRKS1_ W
_ZNSbIwSt11char_traitsIwESaIwEEC2ERKS2_mm W
_ZNSbIwSt11char_traitsIwESaIwEEC2ERKS2_mmRKS1_ W
_ZNSbIwSt11char_traitsIwESaIwEEC2ESt16initializer_listIwERKS1_ W
_ZNSbIwSt11char_traitsIwESaIwEEC2EmwRKS1_ W
_ZNSbIwSt11char_traitsIwESaIwEEC2Ev W
_ZNSbIwSt11char_traitsIwESaIwEEC2IN9__gnu_cxx17__normal_iteratorIPwS2_EEEET_S8_RKS1_ W
_ZNSbIwSt11char_traitsIwESaIwEEC2IPKwEET_S6_RKS1_ W
_ZNSbIwSt11char_traitsIwESaIwEEC2IPwEET_S5_RKS1_ W
_ZNSbIwSt11char_traitsIwESaIwEED1Ev W
_ZNSbIwSt11char_traitsIwESaIwEED2Ev W
_ZNSbIwSt11char_traitsIwESaIwEEaSEOS2_ W
_ZNSbIwSt11char_traitsIwESaIwEEaSEPKw W
_ZNSbIwSt11char_traitsIwESaIwEEaSERKS2_ W
_ZNSbIwSt11char_traitsIwESaIwEEaSESt16initializer_listIwE W
_ZNSbIwSt11char_traitsIwESaIwEEaSEw W
_ZNSbIwSt11char_traitsIwESaIwEEixEm W
_ZNSbIwSt11char_traitsIwESaIwEEpLEPKw W
_ZNSbIwSt11char_traitsIwESaIwEEpLERKS2_ W
_ZNSbIwSt11char_traitsIwESaIwEEpLESt16initializer_listIwE W
_ZNSbIwSt11char_traitsIwESaIwEEpLEw W
_ZNSd4swapERSd W
_ZNSdC1EOSd W
_ZNSdC1EPSt15basic_streambufIcSt11char_traitsIcEE W
_ZNSdC1Ev W
_ZNSdC2EOSd W
_ZNSdC2EPSt15basic_streambufIcSt11char_traitsIcEE W
_ZNSdC2Ev W
_ZNSdD0Ev W
_ZNSdD1Ev W
_ZNSdD2Ev W
_ZNSdaSEOSd W
_ZNSi10_M_extractIPvEERSiRT_ W
_ZNSi10_M_extractIbEERSiRT_ W
_ZNSi10_M_extractIdEERSiRT_ W
_ZNSi10_M_extractIeEERSiRT_ W
_ZNSi10_M_extractIfEERSiRT_ W
_ZNSi10_M_extractIjEERSiRT_ W
_ZNSi10_M_extractIlEERSiRT_ W
_ZNSi10_M_extractImEERSiRT_ W
_ZNSi10_M_extractItEERSiRT_ W
_ZNSi10_M_extractIxEERSiRT_ W
_ZNSi10_M_extractIyEERSiRT_ W
_ZNSi3getEPcl W
_ZNSi3getEPclc W
_ZNSi3getERSt15basic_streambufIcSt11char_traitsIcEE W
_ZNSi3getERSt15basic_streambufIcSt11char_traitsIcEEc W
_ZNSi3getERc W
_ZNSi3getEv W
_ZNSi4peekEv W
_ZNSi4readEPcl W
_ZNSi4swapERSi W
_ZNSi4syncEv W
_ZNSi5seekgESt4fposI11__mbstate_tE W
_ZNSi5seekgElSt12_Ios_Seekdir W
_ZNSi5tellgEv W
_ZNSi5ungetEv W
_ZNSi6ignoreEl T
_ZNSi6ignoreEli T
_ZNSi6ignoreEv W
_ZNSi6sentryC1ERSib W
_ZNSi6sentryC2ERSib W
_ZNSi7getlineEPcl W
_ZNSi7getlineEPclc T
_ZNSi7putbackEc W
_ZNSi8readsomeEPcl W
_ZNSiC1EOSi W
_ZNSiC1EPSt15basic_streambufIcSt11char_traitsIcEE W
_ZNSiC1Ev W
_ZNSiC2EOSi W
_ZNSiC2EPSt15basic_streambufIcSt11char_traitsIcEE W
_ZNSiC2Ev W
_ZNSiD0Ev W
_ZNSiD1Ev W
_ZNSiD2Ev W
_ZNSiaSEOSi W
_ZNSirsEPFRSiS_E W
_ZNSirsEPFRSt8ios_baseS0_E W
_ZNSirsEPFRSt9basic_iosIcSt11char_traitsIcEES3_E W
_ZNSirsEPSt15basic_streambufIcSt11char_traitsIcEE W
_ZNSirsERPv W
_ZNSirsERb W
_ZNSirsERd W
_ZNSirsERe W
_ZNSirsERf W
_ZNSirsERi W
_ZNSirsERj W
_ZNSirsERl W
_ZNSirsERm W
_ZNSirsERs W
_ZNSirsERt W
_ZNSirsERx W
_ZNSirsERy W
_ZNSo3putEc W
_ZNSo4swapERSo W
_ZNSo5flushEv W
_ZNSo5seekpESt4fposI11__mbstate_tE W
_ZNSo5seekpElSt12_Ios_Seekdir W
_ZNSo5tellpEv W
_ZNSo5writeEPKcl W
_ZNSo6sentryC1ERSo W
_ZNSo6sentryC2ERSo W
_ZNSo6sentryD1Ev W
_ZNSo6sentryD2Ev W
_ZNSo8_M_writeEPKcl W
_ZNSo9_M_insertIPKvEERSoT_ W
_ZNSo9_M_insertIbEERSoT_ W
_ZNSo9_M_insertIdEERSoT_ W
_ZNSo9_M_insertIeEERSoT_ W
_ZNSo9_M_insertIlEERSoT_ W
_ZNSo9_M_insertImEERSoT_ W
_ZNSo9_M_insertIxEERSoT_ W
_ZNSo9_M_insertIyEERSoT_ W
_ZNSoC1EOSo W
_ZNSoC1EPSt15basic_streambufIcSt11char_traitsIcEE W
_ZNSoC1ERSd W
_ZNSoC1Ev W
_ZNSoC2EOSo W
_ZNSoC2EPSt15basic_streambufIcSt11char_traitsIcEE W
_ZNSoC2ERSd W
_ZNSoC2Ev W
_ZNSoD0Ev W
_ZNSoD1Ev W
_ZNSoD2Ev W
_ZNSoaSEOSo W
_ZNSolsEPFRSoS_E W
_ZNSolsEPFRSt8ios_baseS0_E W
_ZNSolsEPFRSt9basic_iosIcSt11char_traitsIcEES3_E W
_ZNSolsEPKv W
_ZNSolsEPSt15basic_streambufIcSt11char_traitsIcEE W
_ZNSolsEb W
_ZNSolsEd W
_ZNSolsEe W
_ZNSolsEf W
_ZNSolsEi W
_ZNSolsEj W
_ZNSolsEl W
_ZNSolsEm W
_ZNSolsEs W
_ZNSolsEt W
_ZNSolsEx W
_ZNSolsEy W
_ZNSs10_S_compareEmm W
_ZNSs12_Alloc_hiderC1EPcRKSaIcE W
_ZNSs12_Alloc_hiderC2EPcRKSaIcE W
_ZNSs12_M_leak_hardEv W
_ZNSs12_S_constructEmcRKSaIcE W
_ZNSs12_S_constructIN9__gnu_cxx17__normal_iteratorIPcSsEEEES2_T_S4_RKSaIcESt20forward_iterator_tag W
_ZNSs12_S_constructIPKcEEPcT_S3_RKSaIcESt20forward_iterator_tag W
_ZNSs12_S_constructIPcEES0_T_S1_RKSaIcESt20forward_iterator_tag W
_ZNSs12_S_empty_repEv W
_ZNSs13_S_copy_charsEPcN9__gnu_cxx17__normal_iteratorIPKcSsEES4_ W
_ZNSs13_S_copy_charsEPcN9__gnu_cxx17__normal_iteratorIS_SsEES2_ W
_ZNSs13_S_copy_charsEPcPKcS1_ W
_ZNSs13_S_copy_charsEPcS_S_ W
_ZNSs13shrink_to_fitEv W
_ZNSs14_M_replace_auxEmmmc W
_ZNSs15_M_replace_safeEmmPKcm W
_ZNSs18_S_construct_aux_2EmcRKSaIcE W
_ZNSs2atEm W
_ZNSs3endEv W
_ZNSs4_Rep10_M_destroyERKSaIcE W
_ZNSs4_Rep10_M_disposeERKSaIcE W
_ZNSs4_Rep10_M_refcopyEv W
_ZNSs4_Rep10_M_refdataEv W
_ZNSs4_Rep11_S_max_sizeE u
_ZNSs4_Rep11_S_terminalE u
_ZNSs4_Rep12_S_empty_repEv W
_ZNSs4_Rep13_M_set_leakedEv W
_ZNSs4_Rep15_M_set_sharableEv W
_ZNSs4_Rep20_S_empty_rep_storageE u
_ZNSs4_Rep26_M_set_length_and_sharableEm W
_ZNSs4_Rep7_M_grabERKSaIcES2_ W
_ZNSs4_Rep8_M_cloneERKSaIcEm W
_ZNSs4_Rep9_S_createEmmRKSaIcE W
_ZNSs4backEv W
_ZNSs4nposE u
_ZNSs4rendEv W
_ZNSs4swapERSs W
_ZNSs5beginEv W
_ZNSs5clearEv W
_ZNSs5eraseEN9__gnu_cxx17__normal_iteratorIPcSsEE W
_ZNSs5eraseEN9__gnu_cxx17__normal_iteratorIPcSsEES2_ W
_ZNSs5eraseEmm W
_ZNSs5frontEv W
_ZNSs6appendEPKc W
_ZNSs6appendEPKcm W
_ZNSs6appendERKSs W
_ZNSs6appendERKSsmm W
_ZNSs6appendESt16initializer_listIcE W
_ZNSs6appendEmc W
_ZNSs6assignEOSs W
_ZNSs6assignEPKc W
_ZNSs6assignEPKcm W
_ZNSs6assignERKSs W
_ZNSs6assignERKSsmm W
_ZNSs6assignESt16initializer_listIcE W
_ZNSs6assignEmc W
_ZNSs6insertEN9__gnu_cxx17__normal_iteratorIPcSsEESt16initializer_listIcE W
_ZNSs6insertEN9__gnu_cxx17__normal_iteratorIPcSsEEc W
_ZNSs6insertEN9__gnu_cxx17__normal_iteratorIPcSsEEmc W
_ZNSs6insertEmPKc W
_ZNSs6insertEmPKcm W
_ZNSs6insertEmRKSs W
_ZNSs6insertEmRKSsmm W
_ZNSs6insertEmmc W
_ZNSs6rbeginEv W
_ZNSs6resizeEm W
_ZNSs6resizeEmc W
_ZNSs7_M_copyEPcPKcm W
_ZNSs7_M_dataEPc W
_ZNSs7_M_leakEv W
_ZNSs7_M_moveEPcPKcm W
_ZNSs7replaceEN9__gnu_cxx17__normal_iteratorIPcSsEES2_NS0_IPKcSsEES5_ W
_ZNSs7replaceEN9__gnu_cxx17__normal_iteratorIPcSsEES2_PKc W
_ZNSs7replaceEN9__gnu_cxx17__normal_iteratorIPcSsEES2_PKcS4_ W
_ZNSs7replaceEN9__gnu_cxx17__normal_iteratorIPcSsEES2_PKcm W
_ZNSs7replaceEN9__gnu_cxx17__normal_iteratorIPcSsEES2_RKSs W
_ZNSs7replaceEN9__gnu_cxx17__normal_iteratorIPcSsEES2_S1_S1_ W
_ZNSs7replaceEN9__gnu_cxx17__normal_iteratorIPcSsEES2_S2_S2_ W
_ZNSs7replaceEN9__gnu_cxx17__normal_iteratorIPcSsEES2_St16initializer_listIcE W
_ZNSs7replaceEN9__gnu_cxx17__normal_iteratorIPcSsEES2_mc W
_ZNSs7replaceEmmPKc W
_ZNSs7replaceEmmPKcm W
_ZNSs7replaceEmmRKSs W
_ZNSs7replaceEmmRKSsmm W
_ZNSs7replaceEmmmc W
_ZNSs7reserveEm W
_ZNSs7reserveEv W
_ZNSs8pop_backEv W
_ZNSs9_M_assignEPcmc W
_ZNSs9_M_mutateEmmm W
_ZNSs9push_backEc W
_ZNSsC1EOSs W
_ZNSsC1EOSsRKSaIcE W
_ZNSsC1EPKcRKSaIcE W
_ZNSsC1EPKcmRKSaIcE W
_ZNSsC1ERKSaIcE W
_ZNSsC1ERKSs W
_ZNSsC1ERKSsRKSaIcE W
_ZNSsC1ERKSsmRKSaIcE W
_ZNSsC1ERKSsmm W
_ZNSsC1ERKSsmmRKSaIcE W
_ZNSsC1ESt16initializer_listIcERKSaIcE W
_ZNSsC1EmcRKSaIcE W
_ZNSsC1Ev W
_ZNSsC1IN9__gnu_cxx17__normal_iteratorIPcSsEEEET_S4_RKSaIcE W
_ZNSsC1IPKcEET_S2_RKSaIcE W
_ZNSsC1IPcEET_S1_RKSaIcE W
_ZNSsC2EOSs W
_ZNSsC2EOSsRKSaIcE W
_ZNSsC2EPKcRKSaIcE W
_ZNSsC2EPKcmRKSaIcE W
_ZNSsC2ERKSaIcE W
_ZNSsC2ERKSs W
_ZNSsC2ERKSsRKSaIcE W
_ZNSsC2ERKSsmRKSaIcE W
_ZNSsC2ERKSsmm W
_ZNSsC2ERKSsmmRKSaIcE W
_ZNSsC2ESt16initializer_listIcERKSaIcE W
_ZNSsC2EmcRKSaIcE W
_ZNSsC2Ev W
_ZNSsC2IN9__gnu_cxx17__normal_iteratorIPcSsEEEET_S4_RKSaIcE W
_ZNSsC2IPKcEET_S2_RKSaIcE W
_ZNSsC2IPcEET_S1_RKSaIcE W
_ZNSsD1Ev W
_ZNSsD2Ev W
_ZNSsaSEOSs W
_ZNSsaSEPKc W
_ZNSsaSERKSs W
_ZNSsaSESt16initializer_listIcE W
_ZNSsaSEc W
_ZNSsixEm W
_ZNSspLEPKc W
_ZNSspLERKSs W
_ZNSspLESt16initializer_listIcE W
_ZNSspLEc W
_ZNSt10__num_base11_S_atoms_inE D 8
_ZNSt10__num_base12_S_atoms_outE D 8
_ZNSt10__num_base15_S_format_floatERKSt8ios_basePcc T
_ZNSt10bad_typeidD0Ev T
_ZNSt10bad_typeidD1Ev T
_ZNSt10bad_typeidD2Ev T
_ZNSt10ctype_base5alnumE R
_ZNSt10ctype_base5alphaE R
_ZNSt10ctype_base5blankE R
_ZNSt10ctype_base5cntrlE R
_ZNSt10ctype_base5digitE R
_ZNSt10ctype_base5graphE R
_ZNSt10ctype_base5lowerE R
_ZNSt10ctype_base5printE R
_ZNSt10ctype_base5punctE R
_ZNSt10ctype_base5spaceE R
_ZNSt10ctype_base5upperE R
_ZNSt10ctype_base6xdigitE R
_ZNSt10money_base18_S_default_patternE R
_ZNSt10money_base20_S_construct_patternEccc T
_ZNSt10money_base8_S_atomsE D 8
_ZNSt10moneypunctIcLb0EE24_M_initialize_moneypunctEP15__locale_structPKc T
_ZNSt10moneypunctIcLb0EE2idE u
_ZNSt10moneypunctIcLb0EE4intlE u
_ZNSt10moneypunctIcLb0EEC1EP15__locale_structPKcm W
_ZNSt10moneypunctIcLb0EEC1EPSt18__moneypunct_cacheIcLb0EEm W
_ZNSt10moneypunctIcLb0EEC1Em W
_ZNSt10moneypunctIcLb0EEC2EP15__locale_structPKcm W
_ZNSt10moneypunctIcLb0EEC2EPSt18__moneypunct_cacheIcLb0EEm W
_ZNSt10moneypunctIcLb0EEC2Em W
_ZNSt10moneypunctIcLb0EED0Ev T
_ZNSt10moneypunctIcLb0EED1Ev T
_ZNSt10moneypunctIcLb0EED2Ev T
_ZNSt10moneypunctIcLb1EE24_M_initialize_moneypunctEP15__locale_structPKc T
_ZNSt10moneypunctIcLb1EE2idE u
_ZNSt10moneypunctIcLb1EE4intlE u
_ZNSt10moneypunctIcLb1EEC1EP15__locale_structPKcm W
_ZNSt10moneypunctIcLb1EEC1EPSt18__moneypunct_cacheIcLb1EEm W
_ZNSt10moneypunctIcLb1EEC1Em W
_ZNSt10moneypunctIcLb1EEC2EP15__locale_structPKcm W
_ZNSt10moneypunctIcLb1EEC2EPSt18__moneypunct_cacheIcLb1EEm W
_ZNSt10moneypunctIcLb1EEC2Em W
_ZNSt10moneypunctIcLb1EED0Ev T
_ZNSt10moneypunctIcLb1EED1Ev T
_ZNSt10moneypunctIcLb1EED2Ev T
_ZNSt10moneypunctIwLb0EE24_M_initialize_moneypunctEP15__locale_structPKc T
_ZNSt10moneypunctIwLb0EE2idE u
_ZNSt10moneypunctIwLb0EE4intlE u
_ZNSt10moneypunctIwLb0EEC1EP15__locale_structPKcm W
_ZNSt10moneypunctIwLb0EEC1EPSt18__moneypunct_cacheIwLb0EEm W
_ZNSt10moneypunctIwLb0EEC1Em W
_ZNSt10moneypunctIwLb0EEC2EP15__locale_structPKcm W
_ZNSt10moneypunctIwLb0EEC2EPSt18__moneypunct_cacheIwLb0EEm W
_ZNSt10moneypunctIwLb0EEC2Em W
_ZNSt10moneypunctIwLb0EED0Ev T
_ZNSt10moneypunctIwLb0EED1Ev T
_ZNSt10moneypunctIwLb0EED2Ev T
_ZNSt10moneypunctIwLb1EE24_M_initialize_moneypunctEP15__locale_structPKc T
_ZNSt10moneypunctIwLb1EE2idE u
_ZNSt10moneypunctIwLb1EE4intlE u
_ZNSt10moneypunctIwLb1EEC1EP15__locale_structPKcm W
_ZNSt10moneypunctIwLb1EEC1EPSt18__moneypunct_cacheIwLb1EEm W
_ZNSt10moneypunctIwLb1EEC1Em W
_ZNSt10moneypunctIwLb1EEC2EP15__locale_structPKcm W
_ZNSt10moneypunctIwLb1EEC2EPSt18__moneypunct_cacheIwLb1EEm W
_ZNSt10moneypunctIwLb1EEC2Em W
_ZNSt10moneypunctIwLb1EED0Ev T
_ZNSt10moneypunctIwLb1EED1Ev T
_ZNSt10moneypunctIwLb1EED2Ev T
_ZNSt11__timepunctIcE23_M_initialize_timepunctEP15__locale_struct T
_ZNSt11__timepunctIcE2idE u
_ZNSt11__timepunctIcEC1EP15__locale_structPKcm W
_ZNSt11__timepunctIcEC1EPSt17__timepunct_cacheIcEm W
_ZNSt11__timepunctIcEC1Em W
_ZNSt11__timepunctIcEC2EP15__locale_structPKcm W
_ZNSt11__timepunctIcEC2EPSt17__timepunct_cacheIcEm W
_ZNSt11__timepunctIcEC2Em W
_ZNSt11__timepunctIcED0Ev W
_ZNSt11__timepunctIcED1Ev W
_ZNSt11__timepunctIcED2Ev W
_ZNSt11__timepunctIwE23_M_initialize_timepunctEP15__locale_struct T
_ZNSt11__timepunctIwE2idE u
_ZNSt11__timepunctIwEC1EP15__locale_structPKcm W
_ZNSt11__timepunctIwEC1EPSt17__timepunct_cacheIwEm W
_ZNSt11__timepunctIwEC1Em W
_ZNSt11__timepunctIwEC2EP15__locale_structPKcm W
_ZNSt11__timepunctIwEC2EPSt17__timepunct_cacheIwEm W
_ZNSt11__timepunctIwEC2Em W
_ZNSt11__timepunctIwED0Ev W
_ZNSt11__timepunctIwED1Ev W
_ZNSt11__timepunctIwED2Ev W
_ZNSt11logic_errorC1EOS_ T
_ZNSt11logic_errorC1EPKc T
_ZNSt11logic_errorC1ERKNSt7__cxx1112basic_stringIcSt11char_traitsIcESaIcEEE T
_ZNSt11logic_errorC1ERKS_ T
_ZNSt11logic_errorC1ERKSs T
_ZNSt11logic_errorC2EOS_ T
_ZNSt11logic_errorC2EPKc T
_ZNSt11logic_errorC2ERKNSt7__cxx1112basic_stringIcSt11char_traitsIcESaIcEEE T
_ZNSt11logic_errorC2ERKS_ T
_ZNSt11logic_errorC2ERKSs T
_ZNSt11logic_errorD0Ev T
_ZNSt11logic_errorD1Ev T
_ZNSt11logic_errorD2Ev T
_ZNSt11logic_erroraSEOS_ T
_ZNSt11logic_erroraSERKS_ T
_ZNSt11range_errorC1EPKc T
_ZNSt11range_errorC1ERKNSt7__cxx1112basic_stringIcSt11char_traitsIcESaIcEEE T
_ZNSt11range_errorC1ERKSs T
_ZNSt11range_errorC2EPKc T
_ZNSt11range_errorC2ERKNSt7__cxx1112basic_stringIcSt11char_traitsIcESaIcEEE T
_ZNSt11range_errorC2ERKSs T
_ZNSt11range_errorD0Ev T
_ZNSt11range_errorD1Ev T
_ZNSt11range_errorD2Ev T
_ZNSt12__basic_fileIcE2fdEv T
_ZNSt12__basic_fileIcE4fileEv T
_ZNSt12__basic_fileIcE4openEPKcSt13_Ios_Openmodei T
_ZNSt12__basic_fileIcE4syncEv T
_ZNSt12__basic_fileIcE5closeEv T
_ZNSt12__basic_fileIcE6xsgetnEPcl T
_ZNSt12__basic_fileIcE6xsputnEPKcl T
_ZNSt12__basic_fileIcE7seekoffElSt12_Ios_Seekdir T
_ZNSt12__basic_fileIcE8sys_openEP8_IO_FILESt13_Ios_Openmode T
_ZNSt12__basic_fileIcE8sys_openEiSt13_Ios_Openmode T
_ZNSt12__basic_fileIcE8xsputn_2EPKclS2_l T
_ZNSt12__basic_fileIcE9showmanycEv T
_ZNSt12__basic_fileIcEC1EP15pthread_mutex_t T
_ZNSt12__basic_fileIcEC2EP15pthread_mutex_t T
_ZNSt12__basic_fileIcED1Ev T
_ZNSt12__basic_fileIcED2Ev T
_ZNSt12__cow_stringC1EOS_ T
_ZNSt12__cow_stringC1EPKcm T
_ZNSt12__cow_stringC1ERKNSt7__cxx1112basic_stringIcSt11char_traitsIcESaIcEEE T
_ZNSt12__cow_stringC1ERKS_ T
_ZNSt12__cow_stringC1ERKSs T
_ZNSt12__cow_stringC1Ev T
_ZNSt12__cow_stringC2EOS_ T
_ZNSt12__cow_stringC2EPKcm T
_ZNSt12__cow_stringC2ERKNSt7__cxx1112basic_stringIcSt11char_traitsIcESaIcEEE T
_ZNSt12__cow_stringC2ERKS_ T
_ZNSt12__cow_stringC2ERKSs T
_ZNSt12__cow_stringC2Ev T
_ZNSt12__cow_stringD1Ev T
_ZNSt12__cow_stringD2Ev T
_ZNSt12__cow_stringaSEOS_ T
_ZNSt12__cow_stringaSERKS_ T
_ZNSt12__sso_stringC1EOS_ T
_ZNSt12__sso_stringC1EPKcm T
_ZNSt12__sso_stringC1ERKNSt7__cxx1112basic_stringIcSt11char_traitsIcESaIcEEE T
_ZNSt12__sso_stringC1ERKS_ T
_ZNSt12__sso_stringC1ERKSs T
_ZNSt12__sso_stringC1Ev T
_ZNSt12__sso_stringC2EOS_ T
_ZNSt12__sso_stringC2EPKcm T
_ZNSt12__sso_stringC2ERKNSt7__cxx1112basic_stringIcSt11char_traitsIcESaIcEEE T
_ZNSt12__sso_stringC2ERKS_ T
_ZNSt12__sso_stringC2ERKSs T
_ZNSt12__sso_stringC2Ev T
_ZNSt12__sso_stringD1Ev T
_ZNSt12__sso_stringD2Ev T
_ZNSt12__sso_stringaSEOS_ T
_ZNSt12__sso_stringaSERKS_ T
_ZNSt12ctype_bynameIcEC1EPKcm T
_ZNSt12ctype_bynameIcEC1ERKNSt7__cxx1112basic_stringIcSt11char_traitsIcESaIcEEEm T
_ZNSt12ctype_bynameIcEC1ERKSsm T
_ZNSt12ctype_bynameIcEC2EPKcm T
_ZNSt12ctype_bynameIcEC2ERKNSt7__cxx1112basic_stringIcSt11char_traitsIcESaIcEEEm T
_ZNSt12ctype_bynameIcEC2ERKSsm T
_ZNSt12ctype_bynameIcED0Ev T
_ZNSt12ctype_bynameIcED1Ev T
_ZNSt12ctype_bynameIcED2Ev T
_ZNSt12ctype_bynameIwEC1EPKcm T
_ZNSt12ctype_bynameIwEC1ERKNSt7__cxx1112basic_stringIcSt11char_traitsIcESaIcEEEm T
_ZNSt12ctype_bynameIwEC1ERKSsm T
_ZNSt12ctype_bynameIwEC2EPKcm T
_ZNSt12ctype_bynameIwEC2ERKNSt7__cxx1112basic_stringIcSt11char_traitsIcESaIcEEEm T
_ZNSt12ctype_bynameIwEC2ERKSsm T
_ZNSt12ctype_bynameIwED0Ev T
_ZNSt12ctype_bynameIwED1Ev T
_ZNSt12ctype_bynameIwED2Ev T
_ZNSt12domain_errorC1EPKc T
_ZNSt12domain_errorC1ERKNSt7__cxx1112basic_stringIcSt11char_traitsIcESaIcEEE T
_ZNSt12domain_errorC1ERKSs T
_ZNSt12domain_errorC2EPKc T
_ZNSt12domain_errorC2ERKNSt7__cxx1112basic_stringIcSt11char_traitsIcESaIcEEE T
_ZNSt12domain_errorC2ERKSs T
_ZNSt12domain_errorD0Ev T
_ZNSt12domain_errorD1Ev T
_ZNSt12domain_errorD2Ev T
_ZNSt12length_errorC1EPKc T
_ZNSt12length_errorC1ERKNSt7__cxx1112basic_stringIcSt11char_traitsIcESaIcEEE T
_ZNSt12length_errorC1ERKSs T
_ZNSt12length_errorC2EPKc T
_ZNSt12length_errorC2ERKNSt7__cxx1112basic_stringIcSt11char_traitsIcESaIcEEE T
_ZNSt12length_errorC2ERKSs T
_ZNSt12length_errorD0Ev T
_ZNSt12length_errorD1Ev T
_ZNSt12length_errorD2Ev T
_ZNSt12out_of_rangeC1EPKc T
_ZNSt12out_of_rangeC1ERKNSt7__cxx1112basic_stringIcSt11char_traitsIcESaIcEEE T
_ZNSt12out_of_rangeC1ERKSs T
_ZNSt12out_of_rangeC2EPKc T
_ZNSt12out_of_rangeC2ERKNSt7__cxx1112basic_stringIcSt11char_traitsIcESaIcEEE T
_ZNSt12out_of_rangeC2ERKSs T
_ZNSt12out_of_rangeD0Ev T
_ZNSt12out_of_rangeD1Ev T
_ZNSt12out_of_rangeD2Ev T
_ZNSt12system_errorC1ESt10error_codePKc W
_ZNSt12system_errorC1ESt10error_codeRKNSt7__cxx1112basic_stringIcSt11char_traitsIcESaIcEEE W
_ZNSt12system_errorC2ESt10error_codePKc W
_ZNSt12system_errorC2ESt10error_codeRKNSt7__cxx1112basic_stringIcSt11char_traitsIcESaIcEEE W
_ZNSt12system_errorD0Ev T
_ZNSt12system_errorD1Ev T
_ZNSt12system_errorD2Ev T
_ZNSt13__facet_shims10__time_getIcEESt19istreambuf_iteratorIT_St11char_traitsIS2_EESt17integral_constantIbLb0EEPKNSt6locale5facetES5_S5_RSt8ios_baseRSt12_Ios_IostateP2tmc W
_ZNSt13__facet_shims10__time_getIcEESt19istreambuf_iteratorIT_St11char_traitsIS2_EESt17integral_constantIbLb1EEPKNSt6locale5facetES5_S5_RSt8ios_baseRSt12_Ios_IostateP2tmc W
_ZNSt13__facet_shims10__time_getIwEESt19istreambuf_iteratorIT_St11char_traitsIS2_EESt17integral_constantIbLb0EEPKNSt6locale5facetES5_S5_RSt8ios_baseRSt12_Ios_IostateP2tmc W
_ZNSt13__facet_shims10__time_getIwEESt19istreambuf_iteratorIT_St11char_traitsIS2_EESt17integral_constantIbLb1EEPKNSt6locale5facetES5_S5_RSt8ios_baseRSt12_Ios_IostateP2tmc W
_ZNSt13__facet_shims11__money_getIcEESt19istreambuf_iteratorIT_St11char_traitsIS2_EESt17integral_constantIbLb0EEPKNSt6locale5facetES5_S5_bRSt8ios_baseRSt12_Ios_IostatePePNS_12__any_stringE W
_ZNSt13__facet_shims11__money_getIcEESt19istreambuf_iteratorIT_St11char_traitsIS2_EESt17integral_constantIbLb1EEPKNSt6locale5facetES5_S5_bRSt8ios_baseRSt12_Ios_IostatePePNS_12__any_stringE W
_ZNSt13__facet_shims11__money_getIwEESt19istreambuf_iteratorIT_St11char_traitsIS2_EESt17integral_constantIbLb0EEPKNSt6locale5facetES5_S5_bRSt8ios_baseRSt12_Ios_IostatePePNS_12__any_stringE W
_ZNSt13__facet_shims11__money_getIwEESt19istreambuf_iteratorIT_St11char_traitsIS2_EESt17integral_constantIbLb1EEPKNSt6locale5facetES5_S5_bRSt8ios_baseRSt12_Ios_IostatePePNS_12__any_stringE W
_ZNSt13__facet_shims11__money_putIcEESt19ostreambuf_iteratorIT_St11char_traitsIS2_EESt17integral_constantIbLb0EEPKNSt6locale5facetES5_bRSt8ios_baseS2_ePKNS_12__any_stringE W
_ZNSt13__facet_shims11__money_putIcEESt19ostreambuf_iteratorIT_St11char_traitsIS2_EESt17integral_constantIbLb1EEPKNSt6locale5facetES5_bRSt8ios_baseS2_ePKNS_12__any_stringE W
_ZNSt13__facet_shims11__money_putIwEESt19ostreambuf_iteratorIT_St11char_traitsIS2_EESt17integral_constantIbLb0EEPKNSt6locale5facetES5_bRSt8ios_baseS2_ePKNS_12__any_stringE W
_ZNSt13__facet_shims11__money_putIwEESt19ostreambuf_iteratorIT_St11char_traitsIS2_EESt17integral_constantIbLb1EEPKNSt6locale5facetES5_bRSt8ios_baseS2_ePKNS_12__any_stringE W
_ZNSt13__facet_shims14__messages_getIcEEvSt17integral_constantIbLb0EEPKNSt6locale5facetERNS_12__any_stringEiiiPKT_m W
_ZNSt13__facet_shims14__messages_getIcEEvSt17integral_constantIbLb1EEPKNSt6locale5facetERNS_12__any_stringEiiiPKT_m W
_ZNSt13__facet_shims14__messages_getIwEEvSt17integral_constantIbLb0EEPKNSt6locale5facetERNS_12__any_stringEiiiPKT_m W
_ZNSt13__facet_shims14__messages_getIwEEvSt17integral_constantIbLb1EEPKNSt6locale5facetERNS_12__any_stringEiiiPKT_m W
_ZNSt13__facet_shims15__messages_openIcEEiSt17integral_constantIbLb0EEPKNSt6locale5facetEPKcmRKS3_ W
_ZNSt13__facet_shims15__messages_openIcEEiSt17integral_constantIbLb1EEPKNSt6locale5facetEPKcmRKS3_ W
_ZNSt13__facet_shims15__messages_openIwEEiSt17integral_constantIbLb0EEPKNSt6locale5facetEPKcmRKS3_ W
_ZNSt13__facet_shims15__messages_openIwEEiSt17integral_constantIbLb1EEPKNSt6locale5facetEPKcmRKS3_ W
_ZNSt13__facet_shims16__messages_closeIcEEvSt17integral_constantIbLb0EEPKNSt6locale5facetEi W
_ZNSt13__facet_shims16__messages_closeIcEEvSt17integral_constantIbLb1EEPKNSt6locale5facetEi W
_ZNSt13__facet_shims16__messages_closeIwEEvSt17integral_constantIbLb0EEPKNSt6locale5facetEi W
_ZNSt13__facet_shims16__messages_closeIwEEvSt17integral_constantIbLb1EEPKNSt6locale5facetEi W
_ZNSt13__facet_shims17__collate_compareIcEEiSt17integral_constantIbLb0EEPKNSt6locale5facetEPKT_S9_S9_S9_ W
_ZNSt13__facet_shims17__collate_compareIcEEiSt17integral_constantIbLb1EEPKNSt6locale5facetEPKT_S9_S9_S9_ W
_ZNSt13__facet_shims17__collate_compareIwEEiSt17integral_constantIbLb0EEPKNSt6locale5facetEPKT_S9_S9_S9_ W
_ZNSt13__facet_shims17__collate_compareIwEEiSt17integral_constantIbLb1EEPKNSt6locale5facetEPKT_S9_S9_S9_ W
_ZNSt13__facet_shims19__collate_transformIcEEvSt17integral_constantIbLb0EEPKNSt6locale5facetERNS_12__any_stringEPKT_SB_ W
_ZNSt13__facet_shims19__collate_transformIcEEvSt17integral_constantIbLb1EEPKNSt6locale5facetERNS_12__any_stringEPKT_SB_ W
_ZNSt13__facet_shims19__collate_transformIwEEvSt17integral_constantIbLb0EEPKNSt6locale5facetERNS_12__any_stringEPKT_SB_ W
_ZNSt13__facet_shims19__collate_transformIwEEvSt17integral_constantIbLb1EEPKNSt6locale5facetERNS_12__any_stringEPKT_SB_ W
_ZNSt13__facet_shims20__time_get_dateorderIcEENSt9time_base9dateorderESt17integral_constantIbLb0EEPKNSt6locale5facetE W
_ZNSt13__facet_shims20__time_get_dateorderIcEENSt9time_base9dateorderESt17integral_constantIbLb1EEPKNSt6locale5facetE W
_ZNSt13__facet_shims20__time_get_dateorderIwEENSt9time_base9dateorderESt17integral_constantIbLb0EEPKNSt6locale5facetE W
_ZNSt13__facet_shims20__time_get_dateorderIwEENSt9time_base9dateorderESt17integral_constantIbLb1EEPKNSt6locale5facetE W
_ZNSt13__facet_shims21__numpunct_fill_cacheIcEEvSt17integral_constantIbLb0EEPKNSt6locale5facetEPSt16__numpunct_cacheIT_E W
_ZNSt13__facet_shims21__numpunct_fill_cacheIcEEvSt17integral_constantIbLb1EEPKNSt6locale5facetEPSt16__numpunct_cacheIT_E W
_ZNSt13__facet_shims21__numpunct_fill_cacheIwEEvSt17integral_constantIbLb0EEPKNSt6locale5facetEPSt16__numpunct_cacheIT_E W
_ZNSt13__facet_shims21__numpunct_fill_cacheIwEEvSt17integral_constantIbLb1EEPKNSt6locale5facetEPSt16__numpunct_cacheIT_E W
_ZNSt13__facet_shims23__moneypunct_fill_cacheIcLb0EEEvSt17integral_constantIbLb0EEPKNSt6locale5facetEPSt18__moneypunct_cacheIT_XT0_EE W
_ZNSt13__facet_shims23__moneypunct_fill_cacheIcLb0EEEvSt17integral_constantIbLb1EEPKNSt6locale5facetEPSt18__moneypunct_cacheIT_XT0_EE W
_ZNSt13__facet_shims23__moneypunct_fill_cacheIcLb1EEEvSt17integral_constantIbLb0EEPKNSt6locale5facetEPSt18__moneypunct_cacheIT_XT0_EE W
_ZNSt13__facet_shims23__moneypunct_fill_cacheIcLb1EEEvSt17integral_constantIbLb1EEPKNSt6locale5facetEPSt18__moneypunct_cacheIT_XT0_EE W
_ZNSt13__facet_shims23__moneypunct_fill_cacheIwLb0EEEvSt17integral_constantIbLb0EEPKNSt6locale5facetEPSt18__moneypunct_cacheIT_XT0_EE W
_ZNSt13__facet_shims23__moneypunct_fill_cacheIwLb0EEEvSt17integral_constantIbLb1EEPKNSt6locale5facetEPSt18__moneypunct_cacheIT_XT0_EE W
_ZNSt13__facet_shims23__moneypunct_fill_cacheIwLb1EEEvSt17integral_constantIbLb0EEPKNSt6locale5facetEPSt18__moneypunct_cacheIT_XT0_EE W
_ZNSt13__facet_shims23__moneypunct_fill_cacheIwLb1EEEvSt17integral_constantIbLb1EEPKNSt6locale5facetEPSt18__moneypunct_cacheIT_XT0_EE W
_ZNSt13__ios_failureD0Ev W
_ZNSt13__ios_failureD1Ev W
_ZNSt13__ios_failureD2Ev W
_ZNSt13bad_exceptionD0Ev T
_ZNSt13bad_exceptionD1Ev T
_ZNSt13bad_exceptionD2Ev T
_ZNSt13basic_filebufIcSt11char_traitsIcEE13_M_set_bufferEl W
_ZNSt13basic_filebufIcSt11char_traitsIcEE14_M_get_ext_posER11__mbstate_t W
_ZNSt13basic_filebufIcSt11char_traitsIcEE15_M_create_pbackEv W
_ZNSt13basic_filebufIcSt11char_traitsIcEE16_M_destroy_pbackEv W
_ZNSt13basic_filebufIcSt11char_traitsIcEE19_M_terminate_outputEv W
_ZNSt13basic_filebufIcSt11char_traitsIcEE22_M_convert_to_externalEPcl W
_ZNSt13basic_filebufIcSt11char_traitsIcEE26_M_destroy_internal_bufferEv W
_ZNSt13basic_filebufIcSt11char_traitsIcEE27_M_allocate_internal_bufferEv W
_ZNSt13basic_filebufIcSt11char_traitsIcEE4openEPKcSt13_Ios_Openmode W
_ZNSt13basic_filebufIcSt11char_traitsIcEE4openERKNSt7__cxx1112basic_stringIcS1_SaIcEEESt13_Ios_Openmode W
_ZNSt13basic_filebufIcSt11char_traitsIcEE4swapERS2_ W
_ZNSt13basic_filebufIcSt11char_traitsIcEE4syncEv W
_ZNSt13basic_filebufIcSt11char_traitsIcEE5closeEv W
_ZNSt13basic_filebufIcSt11char_traitsIcEE5imbueERKSt6locale W
_ZNSt13basic_filebufIcSt11char_traitsIcEE6setbufEPcl W
_ZNSt13basic_filebufIcSt11char_traitsIcEE6xsgetnEPcl W
_ZNSt13basic_filebufIcSt11char_traitsIcEE6xsputnEPKcl W
_ZNSt13basic_filebufIcSt11char_traitsIcEE7_M_seekElSt12_Ios_Seekdir11__mbstate_t W
_ZNSt13basic_filebufIcSt11char_traitsIcEE7seekoffElSt12_Ios_SeekdirSt13_Ios_Openmode W
_ZNSt13basic_filebufIcSt11char_traitsIcEE7seekposESt4fposI11__mbstate_tESt13_Ios_Openmode W
_ZNSt13basic_filebufIcSt11char_traitsIcEE8overflowEi W
_ZNSt13basic_filebufIcSt11char_traitsIcEE9pbackfailEi W
_ZNSt13basic_filebufIcSt11char_traitsIcEE9showmanycEv W
_ZNSt13basic_filebufIcSt11char_traitsIcEE9underflowEv W
_ZNSt13basic_filebufIcSt11char_traitsIcEEC1EOS2_ W
_ZNSt13basic_filebufIcSt11char_traitsIcEEC1Ev W
_ZNSt13basic_filebufIcSt11char_traitsIcEEC2EOS2_ W
_ZNSt13basic_filebufIcSt11char_traitsIcEEC2Ev W
_ZNSt13basic_filebufIcSt11char_traitsIcEED0Ev W
_ZNSt13basic_filebufIcSt11char_traitsIcEED1Ev W
_ZNSt13basic_filebufIcSt11char_traitsIcEED2Ev W
_ZNSt13basic_filebufIcSt11char_traitsIcEEaSEOS2_ W
_ZNSt13basic_filebufIwSt11char_traitsIwEE13_M_set_bufferEl W
_ZNSt13basic_filebufIwSt11char_traitsIwEE14_M_get_ext_posER11__mbstate_t W
_ZNSt13basic_filebufIwSt11char_traitsIwEE15_M_create_pbackEv W
_ZNSt13basic_filebufIwSt11char_traitsIwEE16_M_destroy_pbackEv W
_ZNSt13basic_filebufIwSt11char_traitsIwEE19_M_terminate_outputEv W
_ZNSt13basic_filebufIwSt11char_traitsIwEE22_M_convert_to_externalEPwl W
_ZNSt13basic_filebufIwSt11char_traitsIwEE26_M_destroy_internal_bufferEv W
_ZNSt13basic_filebufIwSt11char_traitsIwEE27_M_allocate_internal_bufferEv W
_ZNSt13basic_filebufIwSt11char_traitsIwEE4openEPKcSt13_Ios_Openmode W
_ZNSt13basic_filebufIwSt11char_traitsIwEE4openERKNSt7__cxx1112basic_stringIcS0_IcESaIcEEESt13_Ios_Openmode W
_ZNSt13basic_filebufIwSt11char_traitsIwEE4swapERS2_ W
_ZNSt13basic_filebufIwSt11char_traitsIwEE4syncEv W
_ZNSt13basic_filebufIwSt11char_traitsIwEE5closeEv W
_ZNSt13basic_filebufIwSt11char_traitsIwEE5imbueERKSt6locale W
_ZNSt13basic_filebufIwSt11char_traitsIwEE6setbufEPwl W
_ZNSt13basic_filebufIwSt11char_traitsIwEE6xsgetnEPwl W
_ZNSt13basic_filebufIwSt11char_traitsIwEE6xsputnEPKwl W
_ZNSt13basic_filebufIwSt11char_traitsIwEE7_M_seekElSt12_Ios_Seekdir11__mbstate_t W
_ZNSt13basic_filebufIwSt11char_traitsIwEE7seekoffElSt12_Ios_SeekdirSt13_Ios_Openmode W
_ZNSt13basic_filebufIwSt11char_traitsIwEE7seekposESt4fposI11__mbstate_tESt13_Ios_Openmode W
_ZNSt13basic_filebufIwSt11char_traitsIwEE8overflowEj W
_ZNSt13basic_filebufIwSt11char_traitsIwEE9pbackfailEj W
_ZNSt13basic_filebufIwSt11char_traitsIwEE9showmanycEv W
_ZNSt13basic_filebufIwSt11char_traitsIwEE9underflowEv W
_ZNSt13basic_filebufIwSt11char_traitsIwEEC1EOS2_ W
_ZNSt13basic_filebufIwSt11char_traitsIwEEC1Ev W
_ZNSt13basic_filebufIwSt11char_traitsIwEEC2EOS2_ W
_ZNSt13basic_filebufIwSt11char_traitsIwEEC2Ev W
_ZNSt13basic_filebufIwSt11char_traitsIwEED0Ev W
_ZNSt13basic_filebufIwSt11char_traitsIwEED1Ev W
_ZNSt13basic_filebufIwSt11char_traitsIwEED2Ev W
_ZNSt13basic_filebufIwSt11char_traitsIwEEaSEOS2_ W
_ZNSt13basic_fstreamIcSt11char_traitsIcEE4openEPKcSt13_Ios_Openmode W
_ZNSt13basic_fstreamIcSt11char_traitsIcEE4openERKNSt7__cxx1112basic_stringIcS1_SaIcEEESt13_Ios_Openmode W
_ZNSt13basic_fstreamIcSt11char_traitsIcEE4swapERS2_ W
_ZNSt13basic_fstreamIcSt11char_traitsIcEE5closeEv W
_ZNSt13basic_fstreamIcSt11char_traitsIcEE7is_openEv W
_ZNSt13basic_fstreamIcSt11char_traitsIcEEC1EOS2_ W
_ZNSt13basic_fstreamIcSt11char_traitsIcEEC1EPKcSt13_Ios_Openmode W
_ZNSt13basic_fstreamIcSt11char_traitsIcEEC1ERKNSt7__cxx1112basic_stringIcS1_SaIcEEESt13_Ios_Openmode W
_ZNSt13basic_fstreamIcSt11char_traitsIcEEC1Ev W
_ZNSt13basic_fstreamIcSt11char_traitsIcEEC2EOS2_ W
_ZNSt13basic_fstreamIcSt11char_traitsIcEEC2EPKcSt13_Ios_Openmode W
_ZNSt13basic_fstreamIcSt11char_traitsIcEEC2ERKNSt7__cxx1112basic_stringIcS1_SaIcEEESt13_Ios_Openmode W
_ZNSt13basic_fstreamIcSt11char_traitsIcEEC2Ev W
_ZNSt13basic_fstreamIcSt11char_traitsIcEED0Ev W
_ZNSt13basic_fstreamIcSt11char_traitsIcEED1Ev W
_ZNSt13basic_fstreamIcSt11char_traitsIcEED2Ev W
_ZNSt13basic_fstreamIcSt11char_traitsIcEEaSEOS2_ W
_ZNSt13basic_fstreamIwSt11char_traitsIwEE4openEPKcSt13_Ios_Openmode W
_ZNSt13basic_fstreamIwSt11char_traitsIwEE4openERKNSt7__cxx1112basic_stringIcS0_IcESaIcEEESt13_Ios_Openmode W
_ZNSt13basic_fstreamIwSt11char_traitsIwEE4swapERS2_ W
_ZNSt13basic_fstreamIwSt11char_traitsIwEE5closeEv W
_ZNSt13basic_fstreamIwSt11char_traitsIwEE7is_openEv W
_ZNSt13basic_fstreamIwSt11char_traitsIwEEC1EOS2_ W
_ZNSt13basic_fstreamIwSt11char_traitsIwEEC1EPKcSt13_Ios_Openmode W
_ZNSt13basic_fstreamIwSt11char_traitsIwEEC1ERKNSt7__cxx1112basic_stringIcS0_IcESaIcEEESt13_Ios_Openmode W
_ZNSt13basic_fstreamIwSt11char_traitsIwEEC1Ev W
_ZNSt13basic_fstreamIwSt11char_traitsIwEEC2EOS2_ W
_ZNSt13basic_fstreamIwSt11char_traitsIwEEC2EPKcSt13_Ios_Openmode W
_ZNSt13basic_fstreamIwSt11char_traitsIwEEC2ERKNSt7__cxx1112basic_stringIcS0_IcESaIcEEESt13_Ios_Openmode W
_ZNSt13basic_fstreamIwSt11char_traitsIwEEC2Ev W
_ZNSt13basic_fstreamIwSt11char_traitsIwEED0Ev W
_ZNSt13basic_fstreamIwSt11char_traitsIwEED1Ev W
_ZNSt13basic_fstreamIwSt11char_traitsIwEED2Ev W
_ZNSt13basic_fstreamIwSt11char_traitsIwEEaSEOS2_ W
_ZNSt13basic_istreamIwSt11char_traitsIwEE10_M_extractIPvEERS2_RT_ W
_ZNSt13basic_istreamIwSt11char_traitsIwEE10_M_extractIbEERS2_RT_ W
_ZNSt13basic_istreamIwSt11char_traitsIwEE10_M_extractIdEERS2_RT_ W
_ZNSt13basic_istreamIwSt11char_traitsIwEE10_M_extractIeEERS2_RT_ W
_ZNSt13basic_istreamIwSt11char_traitsIwEE10_M_extractIfEERS2_RT_ W
_ZNSt13basic_istreamIwSt11char_traitsIwEE10_M_extractIjEERS2_RT_ W
_ZNSt13basic_istreamIwSt11char_traitsIwEE10_M_extractIlEERS2_RT_ W
_ZNSt13basic_istreamIwSt11char_traitsIwEE10_M_extractImEERS2_RT_ W
_ZNSt13basic_istreamIwSt11char_traitsIwEE10_M_extractItEERS2_RT_ W
_ZNSt13basic_istreamIwSt11char_traitsIwEE10_M_extractIxEERS2_RT_ W
_ZNSt13basic_istreamIwSt11char_traitsIwEE10_M_extractIyEERS2_RT_ W
_ZNSt13basic_istreamIwSt11char_traitsIwEE3getEPwl W
_ZNSt13basic_istreamIwSt11char_traitsIwEE3getEPwlw W
_ZNSt13basic_istreamIwSt11char_traitsIwEE3getERSt15basic_streambufIwS1_E W
_ZNSt13basic_istreamIwSt11char_traitsIwEE3getERSt15basic_streambufIwS1_Ew W
_ZNSt13basic_istreamIwSt11char_traitsIwEE3getERw W
_ZNSt13basic_istreamIwSt11char_traitsIwEE3getEv W
_ZNSt13basic_istreamIwSt11char_traitsIwEE4peekEv W
_ZNSt13basic_istreamIwSt11char_traitsIwEE4readEPwl W
_ZNSt13basic_istreamIwSt11char_traitsIwEE4swapERS2_ W
_ZNSt13basic_istreamIwSt11char_traitsIwEE4syncEv W
_ZNSt13basic_istreamIwSt11char_traitsIwEE5seekgESt4fposI11__mbstate_tE W
_ZNSt13basic_istreamIwSt11char_traitsIwEE5seekgElSt12_Ios_Seekdir W
_ZNSt13basic_istreamIwSt11char_traitsIwEE5tellgEv W
_ZNSt13basic_istreamIwSt11char_traitsIwEE5ungetEv W
_ZNSt13basic_istreamIwSt11char_traitsIwEE6ignoreEl T
_ZNSt13basic_istreamIwSt11char_traitsIwEE6ignoreElj T
_ZNSt13basic_istreamIwSt11char_traitsIwEE6ignoreEv W
_ZNSt13basic_istreamIwSt11char_traitsIwEE6sentryC1ERS2_b W
_ZNSt13basic_istreamIwSt11char_traitsIwEE6sentryC2ERS2_b W
_ZNSt13basic_istreamIwSt11char_traitsIwEE7getlineEPwl W
_ZNSt13basic_istreamIwSt11char_traitsIwEE7getlineEPwlw T
_ZNSt13basic_istreamIwSt11char_traitsIwEE7putbackEw W
_ZNSt13basic_istreamIwSt11char_traitsIwEE8readsomeEPwl W
_ZNSt13basic_istreamIwSt11char_traitsIwEEC1EOS2_ W
_ZNSt13basic_istreamIwSt11char_traitsIwEEC1EPSt15basic_streambufIwS1_E W
_ZNSt13basic_istreamIwSt11char_traitsIwEEC1Ev W
_ZNSt13basic_istreamIwSt11char_traitsIwEEC2EOS2_ W
_ZNSt13basic_istreamIwSt11char_traitsIwEEC2EPSt15basic_streambufIwS1_E W
_ZNSt13basic_istreamIwSt11char_traitsIwEEC2Ev W
_ZNSt13basic_istreamIwSt11char_traitsIwEED0Ev W
_ZNSt13basic_istreamIwSt11char_traitsIwEED1Ev W
_ZNSt13basic_istreamIwSt11char_traitsIwEED2Ev W
_ZNSt13basic_istreamIwSt11char_traitsIwEEaSEOS2_ W
_ZNSt13basic_istreamIwSt11char_traitsIwEErsEPFRS2_S3_E W
_ZNSt13basic_istreamIwSt11char_traitsIwEErsEPFRSt8ios_baseS4_E W
_ZNSt13basic_istreamIwSt11char_traitsIwEErsEPFRSt9basic_iosIwS1_ES5_E W
_ZNSt13basic_istreamIwSt11char_traitsIwEErsEPSt15basic_streambufIwS1_E W
_ZNSt13basic_istreamIwSt11char_traitsIwEErsERPv W
_ZNSt13basic_istreamIwSt11char_traitsIwEErsERb W
_ZNSt13basic_istreamIwSt11char_traitsIwEErsERd W
_ZNSt13basic_istreamIwSt11char_traitsIwEErsERe W
_ZNSt13basic_istreamIwSt11char_traitsIwEErsERf W
_ZNSt13basic_istreamIwSt11char_traitsIwEErsERi W
_ZNSt13basic_istreamIwSt11char_traitsIwEErsERj W
_ZNSt13basic_istreamIwSt11char_traitsIwEErsERl W
_ZNSt13basic_istreamIwSt11char_traitsIwEErsERm W
_ZNSt13basic_istreamIwSt11char_traitsIwEErsERs W
_ZNSt13basic_istreamIwSt11char_traitsIwEErsERt W
_ZNSt13basic_istreamIwSt11char_traitsIwEErsERx W
_ZNSt13basic_istreamIwSt11char_traitsIwEErsERy W
_ZNSt13basic_ostreamIwSt11char_traitsIwEE3putEw W
_ZNSt13basic_ostreamIwSt11char_traitsIwEE4swapERS2_ W
_ZNSt13basic_ostreamIwSt11char_traitsIwEE5flushEv W
_ZNSt13basic_ostreamIwSt11char_traitsIwEE5seekpESt4fposI11__mbstate_tE W
_ZNSt13basic_ostreamIwSt11char_traitsIwEE5seekpElSt12_Ios_Seekdir W
_ZNSt13basic_ostreamIwSt11char_traitsIwEE5tellpEv W
_ZNSt13basic_ostreamIwSt11char_traitsIwEE5writeEPKwl W
_ZNSt13basic_ostreamIwSt11char_traitsIwEE6sentryC1ERS2_ W
_ZNSt13basic_ostreamIwSt11char_traitsIwEE6sentryC2ERS2_ W
_ZNSt13basic_ostreamIwSt11char_traitsIwEE6sentryD1Ev W
_ZNSt13basic_ostreamIwSt11char_traitsIwEE6sentryD2Ev W
_ZNSt13basic_ostreamIwSt11char_traitsIwEE8_M_writeEPKwl W
_ZNSt13basic_ostreamIwSt11char_traitsIwEE9_M_insertIPKvEERS2_T_ W
_ZNSt13basic_ostreamIwSt11char_traitsIwEE9_M_insertIbEERS2_T_ W
_ZNSt13basic_ostreamIwSt11char_traitsIwEE9_M_insertIdEERS2_T_ W
_ZNSt13basic_ostreamIwSt11char_traitsIwEE9_M_insertIeEERS2_T_ W
_ZNSt13basic_ostreamIwSt11char_traitsIwEE9_M_insertIlEERS2_T_ W
_ZNSt13basic_ostreamIwSt11char_traitsIwEE9_M_insertImEERS2_T_ W
_ZNSt13basic_ostreamIwSt11char_traitsIwEE9_M_insertIxEERS2_T_ W
_ZNSt13basic_ostreamIwSt11char_traitsIwEE9_M_insertIyEERS2_T_ W
_ZNSt13basic_ostreamIwSt11char_traitsIwEEC1EOS2_ W
_ZNSt13basic_ostreamIwSt11char_traitsIwEEC1EPSt15basic_streambufIwS1_E W
_ZNSt13basic_ostreamIwSt11char_traitsIwEEC1ERSt14basic_iostreamIwS1_E W
_ZNSt13basic_ostreamIwSt11char_traitsIwEEC1Ev W
_ZNSt13basic_ostreamIwSt11char_traitsIwEEC2EOS2_ W
_ZNSt13basic_ostreamIwSt11char_traitsIwEEC2EPSt15basic_streambufIwS1_E W
_ZNSt13basic_ostreamIwSt11char_traitsIwEEC2ERSt14basic_iostreamIwS1_E W
_ZNSt13basic_ostreamIwSt11char_traitsIwEEC2Ev W
_ZNSt13basic_ostreamIwSt11char_traitsIwEED0Ev W
_ZNSt13basic_ostreamIwSt11char_traitsIwEED1Ev W
_ZNSt13basic_ostreamIwSt11char_traitsIwEED2Ev W
_ZNSt13basic_ostreamIwSt11char_traitsIwEEaSEOS2_ W
_ZNSt13basic_ostreamIwSt11char_traitsIwEElsEPFRS2_S3_E W
_ZNSt13basic_ostreamIwSt11char_traitsIwEElsEPFRSt8ios_baseS4_E W
_ZNSt13basic_ostreamIwSt11char_traitsIwEElsEPFRSt9basic_iosIwS1_ES5_E W
_ZNSt13basic_ostreamIwSt11char_traitsIwEElsEPKv W
_ZNSt13basic_ostreamIwSt11char_traitsIwEElsEPSt15basic_streambufIwS1_E W
_ZNSt13basic_ostreamIwSt11char_traitsIwEElsEb W
_ZNSt13basic_ostreamIwSt11char_traitsIwEElsEd W
_ZNSt13basic_ostreamIwSt11char_traitsIwEElsEe W
_ZNSt13basic_ostreamIwSt11char_traitsIwEElsEf W
_ZNSt13basic_ostreamIwSt11char_traitsIwEElsEi W
_ZNSt13basic_ostreamIwSt11char_traitsIwEElsEj W
_ZNSt13basic_ostreamIwSt11char_traitsIwEElsEl W
_ZNSt13basic_ostreamIwSt11char_traitsIwEElsEm W
_ZNSt13basic_ostreamIwSt11char_traitsIwEElsEs W
_ZNSt13basic_ostreamIwSt11char_traitsIwEElsEt W
_ZNSt13basic_ostreamIwSt11char_traitsIwEElsEx W
_ZNSt13basic_ostreamIwSt11char_traitsIwEElsEy W
_ZNSt13random_device14_M_init_pretr1ERKNSt7__cxx1112basic_stringIcSt11char_traitsIcESaIcEEE T
_ZNSt13random_device14_M_init_pretr1ERKSs T
_ZNSt13random_device16_M_getval_pretr1Ev T
_ZNSt13random_device7_M_finiEv T
_ZNSt13random_device7_M_initEPKcm T
_ZNSt13random_device7_M_initERKNSt7__cxx1112basic_stringIcSt11char_traitsIcESaIcEEE T
_ZNSt13random_device7_M_initERKSs T
_ZNSt13random_device9_M_getvalEv T
_ZNSt13runtime_errorC1EOS_ T
_ZNSt13runtime_errorC1EPKc T
_ZNSt13runtime_errorC1ERKNSt7__cxx1112basic_stringIcSt11char_traitsIcESaIcEEE T
_ZNSt13runtime_errorC1ERKS_ T
_ZNSt13runtime_errorC1ERKSs T
_ZNSt13runtime_errorC2EOS_ T
_ZNSt13runtime_errorC2EPKc T
_ZNSt13runtime_errorC2ERKNSt7__cxx1112basic_stringIcSt11char_traitsIcESaIcEEE T
_ZNSt13runtime_errorC2ERKS_ T
_ZNSt13runtime_errorC2ERKSs T
_ZNSt13runtime_errorD0Ev T
_ZNSt13runtime_errorD1Ev T
_ZNSt13runtime_errorD2Ev T
_ZNSt13runtime_erroraSEOS_ T
_ZNSt13runtime_erroraSERKS_ T
_ZNSt14basic_ifstreamIcSt11char_traitsIcEE4openEPKcSt13_Ios_Openmode W
_ZNSt14basic_ifstreamIcSt11char_traitsIcEE4openERKNSt7__cxx1112basic_stringIcS1_SaIcEEESt13_Ios_Openmode W
_ZNSt14basic_ifstreamIcSt11char_traitsIcEE4swapERS2_ W
_ZNSt14basic_ifstreamIcSt11char_traitsIcEE5closeEv W
_ZNSt14basic_ifstreamIcSt11char_traitsIcEE7is_openEv W
_ZNSt14basic_ifstreamIcSt11char_traitsIcEEC1EOS2_ W
_ZNSt14basic_ifstreamIcSt11char_traitsIcEEC1EPKcSt13_Ios_Openmode W
_ZNSt14basic_ifstreamIcSt11char_traitsIcEEC1ERKNSt7__cxx1112basic_stringIcS1_SaIcEEESt13_Ios_Openmode W
_ZNSt14basic_ifstreamIcSt11char_traitsIcEEC1Ev W
_ZNSt14basic_ifstreamIcSt11char_traitsIcEEC2EOS2_ W
_ZNSt14basic_ifstreamIcSt11char_traitsIcEEC2EPKcSt13_Ios_Openmode W
_ZNSt14basic_ifstreamIcSt11char_traitsIcEEC2ERKNSt7__cxx1112basic_stringIcS1_SaIcEEESt13_Ios_Openmode W
_ZNSt14basic_ifstreamIcSt11char_traitsIcEEC2Ev W
_ZNSt14basic_ifstreamIcSt11char_traitsIcEED0Ev W
_ZNSt14basic_ifstreamIcSt11char_traitsIcEED1Ev W
_ZNSt14basic_ifstreamIcSt11char_traitsIcEED2Ev W
_ZNSt14basic_ifstreamIcSt11char_traitsIcEEaSEOS2_ W
_ZNSt14basic_ifstreamIwSt11char_traitsIwEE4openEPKcSt13_Ios_Openmode W
_ZNSt14basic_ifstreamIwSt11char_traitsIwEE4openERKNSt7__cxx1112basic_stringIcS0_IcESaIcEEESt13_Ios_Openmode W
_ZNSt14basic_ifstreamIwSt11char_traitsIwEE4swapERS2_ W
_ZNSt14basic_ifstreamIwSt11char_traitsIwEE5closeEv W
_ZNSt14basic_ifstreamIwSt11char_traitsIwEE7is_openEv W
_ZNSt14basic_ifstreamIwSt11char_traitsIwEEC1EOS2_ W
_ZNSt14basic_ifstreamIwSt11char_traitsIwEEC1EPKcSt13_Ios_Openmode W
_ZNSt14basic_ifstreamIwSt11char_traitsIwEEC1ERKNSt7__cxx1112basic_stringIcS0_IcESaIcEEESt13_Ios_Openmode W
_ZNSt14basic_ifstreamIwSt11char_traitsIwEEC1Ev W
_ZNSt14basic_ifstreamIwSt11char_traitsIwEEC2EOS2_ W
_ZNSt14basic_ifstreamIwSt11char_traitsIwEEC2EPKcSt13_Ios_Openmode W
_ZNSt14basic_ifstreamIwSt11char_traitsIwEEC2ERKNSt7__cxx1112basic_stringIcS0_IcESaIcEEESt13_Ios_Openmode W
_ZNSt14basic_ifstreamIwSt11char_traitsIwEEC2Ev W
_ZNSt14basic_ifstreamIwSt11char_traitsIwEED0Ev W
_ZNSt14basic_ifstreamIwSt11char_traitsIwEED1Ev W
_ZNSt14basic_ifstreamIwSt11char_traitsIwEED2Ev W
_ZNSt14basic_ifstreamIwSt11char_traitsIwEEaSEOS2_ W
_ZNSt14basic_iostreamIwSt11char_traitsIwEE4swapERS2_ W
_ZNSt14basic_iostreamIwSt11char_traitsIwEEC1EOS2_ W
_ZNSt14basic_iostreamIwSt11char_traitsIwEEC1EPSt15basic_streambufIwS1_E W
_ZNSt14basic_iostreamIwSt11char_traitsIwEEC1Ev W
_ZNSt14basic_iostreamIwSt11char_traitsIwEEC2EOS2_ W
_ZNSt14basic_iostreamIwSt11char_traitsIwEEC2EPSt15basic_streambufIwS1_E W
_ZNSt14basic_iostreamIwSt11char_traitsIwEEC2Ev W
_ZNSt14basic_iostreamIwSt11char_traitsIwEED0Ev W
_ZNSt14basic_iostreamIwSt11char_traitsIwEED1Ev W
_ZNSt14basic_iostreamIwSt11char_traitsIwEED2Ev W
_ZNSt14basic_iostreamIwSt11char_traitsIwEEaSEOS2_ W
_ZNSt14basic_ofstreamIcSt11char_traitsIcEE4openEPKcSt13_Ios_Openmode W
_ZNSt14basic_ofstreamIcSt11char_traitsIcEE4openERKNSt7__cxx1112basic_stringIcS1_SaIcEEESt13_Ios_Openmode W
_ZNSt14basic_ofstreamIcSt11char_traitsIcEE4swapERS2_ W
_ZNSt14basic_ofstreamIcSt11char_traitsIcEE5closeEv W
_ZNSt14basic_ofstreamIcSt11char_traitsIcEE7is_openEv W
_ZNSt14basic_ofstreamIcSt11char_traitsIcEEC1EOS2_ W
_ZNSt14basic_ofstreamIcSt11char_traitsIcEEC1EPKcSt13_Ios_Openmode W
_ZNSt14basic_ofstreamIcSt11char_traitsIcEEC1ERKNSt7__cxx1112basic_stringIcS1_SaIcEEESt13_Ios_Openmode W
_ZNSt14basic_ofstreamIcSt11char_traitsIcEEC1Ev W
_ZNSt14basic_ofstreamIcSt11char_traitsIcEEC2EOS2_ W
_ZNSt14basic_ofstreamIcSt11char_traitsIcEEC2EPKcSt13_Ios_Openmode W
_ZNSt14basic_ofstreamIcSt11char_traitsIcEEC2ERKNSt7__cxx1112basic_stringIcS1_SaIcEEESt13_Ios_Openmode W
_ZNSt14basic_ofstreamIcSt11char_traitsIcEEC2Ev W
_ZNSt14basic_ofstreamIcSt11char_traitsIcEED0Ev W
_ZNSt14basic_ofstreamIcSt11char_traitsIcEED1Ev W
_ZNSt14basic_ofstreamIcSt11char_traitsIcEED2Ev W
_ZNSt14basic_ofstreamIcSt11char_traitsIcEEaSEOS2_ W
_ZNSt14basic_ofstreamIwSt11char_traitsIwEE4openEPKcSt13_Ios_Openmode W
_ZNSt14basic_ofstreamIwSt11char_traitsIwEE4openERKNSt7__cxx1112basic_stringIcS0_IcESaIcEEESt13_Ios_Openmode W
_ZNSt14basic_ofstreamIwSt11char_traitsIwEE4swapERS2_ W
_ZNSt14basic_ofstreamIwSt11char_traitsIwEE5closeEv W
_ZNSt14basic_ofstreamIwSt11char_traitsIwEE7is_openEv W
_ZNSt14basic_ofstreamIwSt11char_traitsIwEEC1EOS2_ W
_ZNSt14basic_ofstreamIwSt11char_traitsIwEEC1EPKcSt13_Ios_Openmode W
_ZNSt14basic_ofstreamIwSt11char_traitsIwEEC1ERKNSt7__cxx1112basic_stringIcS0_IcESaIcEEESt13_Ios_Openmode W
_ZNSt14basic_ofstreamIwSt11char_traitsIwEEC1Ev W
_ZNSt14basic_ofstreamIwSt11char_traitsIwEEC2EOS2_ W
_ZNSt14basic_ofstreamIwSt11char_traitsIwEEC2EPKcSt13_Ios_Openmode W
_ZNSt14basic_ofstreamIwSt11char_traitsIwEEC2ERKNSt7__cxx1112basic_stringIcS0_IcESaIcEEESt13_Ios_Openmode W
_ZNSt14basic_ofstreamIwSt11char_traitsIwEEC2Ev W
_ZNSt14basic_ofstreamIwSt11char_traitsIwEED0Ev W
_ZNSt14basic_ofstreamIwSt11char_traitsIwEED1Ev W
_ZNSt14basic_ofstreamIwSt11char_traitsIwEED2Ev W
_ZNSt14basic_ofstreamIwSt11char_traitsIwEEaSEOS2_ W
_ZNSt14codecvt_bynameIcc11__mbstate_tEC1EPKcm W
_ZNSt14codecvt_bynameIcc11__mbstate_tEC1ERKNSt7__cxx1112basic_stringIcSt11char_traitsIcESaIcEEEm W
_ZNSt14codecvt_bynameIcc11__mbstate_tEC1ERKSsm W
_ZNSt14codecvt_bynameIcc11__mbstate_tEC2EPKcm W
_ZNSt14codecvt_bynameIcc11__mbstate_tEC2ERKNSt7__cxx1112basic_stringIcSt11char_traitsIcESaIcEEEm W
_ZNSt14codecvt_bynameIcc11__mbstate_tEC2ERKSsm W
_ZNSt14codecvt_bynameIcc11__mbstate_tED0Ev W
_ZNSt14codecvt_bynameIcc11__mbstate_tED1Ev W
_ZNSt14codecvt_bynameIcc11__mbstate_tED2Ev W
_ZNSt14codecvt_bynameIwc11__mbstate_tEC1EPKcm W
_ZNSt14codecvt_bynameIwc11__mbstate_tEC1ERKNSt7__cxx1112basic_stringIcSt11char_traitsIcESaIcEEEm W
_ZNSt14codecvt_bynameIwc11__mbstate_tEC1ERKSsm W
_ZNSt14codecvt_bynameIwc11__mbstate_tEC2EPKcm W
_ZNSt14codecvt_bynameIwc11__mbstate_tEC2ERKNSt7__cxx1112basic_stringIcSt11char_traitsIcESaIcEEEm W
_ZNSt14codecvt_bynameIwc11__mbstate_tEC2ERKSsm W
_ZNSt14codecvt_bynameIwc11__mbstate_tED0Ev W
_ZNSt14codecvt_bynameIwc11__mbstate_tED1Ev W
_ZNSt14codecvt_bynameIwc11__mbstate_tED2Ev W
_ZNSt14collate_bynameIcEC1EPKcm W
_ZNSt14collate_bynameIcEC1ERKSsm W
_ZNSt14collate_bynameIcEC2EPKcm W
_ZNSt14collate_bynameIcEC2ERKSsm W
_ZNSt14collate_bynameIcED0Ev W
_ZNSt14collate_bynameIcED1Ev W
_ZNSt14collate_bynameIcED2Ev W
_ZNSt14collate_bynameIwEC1EPKcm W
_ZNSt14collate_bynameIwEC1ERKSsm W
_ZNSt14collate_bynameIwEC2EPKcm W
_ZNSt14collate_bynameIwEC2ERKSsm W
_ZNSt14collate_bynameIwED0Ev W
_ZNSt14collate_bynameIwED1Ev W
_ZNSt14collate_bynameIwED2Ev W
_ZNSt14overflow_errorC1EPKc T
_ZNSt14overflow_errorC1ERKNSt7__cxx1112basic_stringIcSt11char_traitsIcESaIcEEE T
_ZNSt14overflow_errorC1ERKSs T
_ZNSt14overflow_errorC2EPKc T
_ZNSt14overflow_errorC2ERKNSt7__cxx1112basic_stringIcSt11char_traitsIcESaIcEEE T
_ZNSt14overflow_errorC2ERKSs T
_ZNSt14overflow_errorD0Ev T
_ZNSt14overflow_errorD1Ev T
_ZNSt14overflow_errorD2Ev T
_ZNSt15basic_streambufIcSt11char_traitsIcEE10pubseekoffElSt12_Ios_SeekdirSt13_Ios_Openmode W
_ZNSt15basic_streambufIcSt11char_traitsIcEE10pubseekposESt4fposI11__mbstate_tESt13_Ios_Openmode W
_ZNSt15basic_streambufIcSt11char_traitsIcEE12__safe_gbumpEl W
_ZNSt15basic_streambufIcSt11char_traitsIcEE12__safe_pbumpEl W
_ZNSt15basic_streambufIcSt11char_traitsIcEE4setgEPcS3_S3_ W
_ZNSt15basic_streambufIcSt11char_traitsIcEE4setpEPcS3_ W
_ZNSt15basic_streambufIcSt11char_traitsIcEE4swapERS2_ W
_ZNSt15basic_streambufIcSt11char_traitsIcEE4syncEv W
_ZNSt15basic_streambufIcSt11char_traitsIcEE5gbumpEi W
_ZNSt15basic_streambufIcSt11char_traitsIcEE5imbueERKSt6locale W
_ZNSt15basic_streambufIcSt11char_traitsIcEE5pbumpEi W
_ZNSt15basic_streambufIcSt11char_traitsIcEE5sgetcEv W
_ZNSt15basic_streambufIcSt11char_traitsIcEE5sgetnEPcl W
_ZNSt15basic_streambufIcSt11char_traitsIcEE5sputcEc W
_ZNSt15basic_streambufIcSt11char_traitsIcEE5sputnEPKcl W
_ZNSt15basic_streambufIcSt11char_traitsIcEE5uflowEv W
_ZNSt15basic_streambufIcSt11char_traitsIcEE6sbumpcEv W
_ZNSt15basic_streambufIcSt11char_traitsIcEE6setbufEPcl W
_ZNSt15basic_streambufIcSt11char_traitsIcEE6snextcEv W
_ZNSt15basic_streambufIcSt11char_traitsIcEE6stosscEv W
_ZNSt15basic_streambufIcSt11char_traitsIcEE6xsgetnEPcl W
_ZNSt15basic_streambufIcSt11char_traitsIcEE6xsputnEPKcl W
_ZNSt15basic_streambufIcSt11char_traitsIcEE7pubsyncEv W
_ZNSt15basic_streambufIcSt11char_traitsIcEE7seekoffElSt12_Ios_SeekdirSt13_Ios_Openmode W
_ZNSt15basic_streambufIcSt11char_traitsIcEE7seekposESt4fposI11__mbstate_tESt13_Ios_Openmode W
_ZNSt15basic_streambufIcSt11char_traitsIcEE7sungetcEv W
_ZNSt15basic_streambufIcSt11char_traitsIcEE8in_availEv W
_ZNSt15basic_streambufIcSt11char_traitsIcEE8overflowEi W
_ZNSt15basic_streambufIcSt11char_traitsIcEE8pubimbueERKSt6locale W
_ZNSt15basic_streambufIcSt11char_traitsIcEE9pbackfailEi W
_ZNSt15basic_streambufIcSt11char_traitsIcEE9pubsetbufEPcl W
_ZNSt15basic_streambufIcSt11char_traitsIcEE9showmanycEv W
_ZNSt15basic_streambufIcSt11char_traitsIcEE9sputbackcEc W
_ZNSt15basic_streambufIcSt11char_traitsIcEE9underflowEv W
_ZNSt15basic_streambufIcSt11char_traitsIcEEC1ERKS2_ W
_ZNSt15basic_streambufIcSt11char_traitsIcEEC1Ev W
_ZNSt15basic_streambufIcSt11char_traitsIcEEC2ERKS2_ W
_ZNSt15basic_streambufIcSt11char_traitsIcEEC2Ev W
_ZNSt15basic_streambufIcSt11char_traitsIcEED0Ev W
_ZNSt15basic_streambufIcSt11char_traitsIcEED1Ev W
_ZNSt15basic_streambufIcSt11char_traitsIcEED2Ev W
_ZNSt15basic_streambufIcSt11char_traitsIcEEaSERKS2_ W
_ZNSt15basic_streambufIwSt11char_traitsIwEE10pubseekoffElSt12_Ios_SeekdirSt13_Ios_Openmode W
_ZNSt15basic_streambufIwSt11char_traitsIwEE10pubseekposESt4fposI11__mbstate_tESt13_Ios_Openmode W
_ZNSt15basic_streambufIwSt11char_traitsIwEE12__safe_gbumpEl W
_ZNSt15basic_streambufIwSt11char_traitsIwEE12__safe_pbumpEl W
_ZNSt15basic_streambufIwSt11char_traitsIwEE4setgEPwS3_S3_ W
_ZNSt15basic_streambufIwSt11char_traitsIwEE4setpEPwS3_ W
_ZNSt15basic_streambufIwSt11char_traitsIwEE4swapERS2_ W
_ZNSt15basic_streambufIwSt11char_traitsIwEE4syncEv W
_ZNSt15basic_streambufIwSt11char_traitsIwEE5gbumpEi W
_ZNSt15basic_streambufIwSt11char_traitsIwEE5imbueERKSt6locale W
_ZNSt15basic_streambufIwSt11char_traitsIwEE5pbumpEi W
_ZNSt15basic_streambufIwSt11char_traitsIwEE5sgetcEv W
_ZNSt15basic_streambufIwSt11char_traitsIwEE5sgetnEPwl W
_ZNSt15basic_streambufIwSt11char_traitsIwEE5sputcEw W
_ZNSt15basic_streambufIwSt11char_traitsIwEE5sputnEPKwl W
_ZNSt15basic_streambufIwSt11char_traitsIwEE5uflowEv W
_ZNSt15basic_streambufIwSt11char_traitsIwEE6sbumpcEv W
_ZNSt15basic_streambufIwSt11char_traitsIwEE6setbufEPwl W
_ZNSt15basic_streambufIwSt11char_traitsIwEE6snextcEv W
_ZNSt15basic_streambufIwSt11char_traitsIwEE6stosscEv W
_ZNSt15basic_streambufIwSt11char_traitsIwEE6xsgetnEPwl W
_ZNSt15basic_streambufIwSt11char_traitsIwEE6xsputnEPKwl W
_ZNSt15basic_streambufIwSt11char_traitsIwEE7pubsyncEv W
_ZNSt15basic_streambufIwSt11char_traitsIwEE7seekoffElSt12_Ios_SeekdirSt13_Ios_Openmode W
_ZNSt15basic_streambufIwSt11char_traitsIwEE7seekposESt4fposI11__mbstate_tESt13_Ios_Openmode W
_ZNSt15basic_streambufIwSt11char_traitsIwEE7sungetcEv W
_ZNSt15basic_streambufIwSt11char_traitsIwEE8in_availEv W
_ZNSt15basic_streambufIwSt11char_traitsIwEE8overflowEj W
_ZNSt15basic_streambufIwSt11char_traitsIwEE8pubimbueERKSt6locale W
_ZNSt15basic_streambufIwSt11char_traitsIwEE9pbackfailEj W
_ZNSt15basic_streambufIwSt11char_traitsIwEE9pubsetbufEPwl W
_ZNSt15basic_streambufIwSt11char_traitsIwEE9showmanycEv W
_ZNSt15basic_streambufIwSt11char_traitsIwEE9sputbackcEw W
_ZNSt15basic_streambufIwSt11char_traitsIwEE9underflowEv W
_ZNSt15basic_streambufIwSt11char_traitsIwEEC1ERKS2_ W
_ZNSt15basic_streambufIwSt11char_traitsIwEEC1Ev W
_ZNSt15basic_streambufIwSt11char_traitsIwEEC2ERKS2_ W
_ZNSt15basic_streambufIwSt11char_traitsIwEEC2Ev W
_ZNSt15basic_streambufIwSt11char_traitsIwEED0Ev W
_ZNSt15basic_streambufIwSt11char_traitsIwEED1Ev W
_ZNSt15basic_streambufIwSt11char_traitsIwEED2Ev W
_ZNSt15basic_streambufIwSt11char_traitsIwEEaSERKS2_ W
_ZNSt15messages_bynameIcEC1EPKcm W
_ZNSt15messages_bynameIcEC1ERKSsm W
_ZNSt15messages_bynameIcEC2EPKcm W
_ZNSt15messages_bynameIcEC2ERKSsm W
_ZNSt15messages_bynameIcED0Ev W
_ZNSt15messages_bynameIcED1Ev W
_ZNSt15messages_bynameIcED2Ev W
_ZNSt15messages_bynameIwEC1EPKcm W
_ZNSt15messages_bynameIwEC1ERKSsm W
_ZNSt15messages_bynameIwEC2EPKcm W
_ZNSt15messages_bynameIwEC2ERKSsm W
_ZNSt15messages_bynameIwED0Ev W
_ZNSt15messages_bynameIwED1Ev W
_ZNSt15messages_bynameIwED2Ev W
_ZNSt15numpunct_bynameIcEC1EPKcm W
_ZNSt15numpunct_bynameIcEC1ERKSsm W
_ZNSt15numpunct_bynameIcEC2EPKcm W
_ZNSt15numpunct_bynameIcEC2ERKSsm W
_ZNSt15numpunct_bynameIcED0Ev W
_ZNSt15numpunct_bynameIcED1Ev W
_ZNSt15numpunct_bynameIcED2Ev W
_ZNSt15numpunct_bynameIwEC1EPKcm W
_ZNSt15numpunct_bynameIwEC1ERKSsm W
_ZNSt15numpunct_bynameIwEC2EPKcm W
_ZNSt15numpunct_bynameIwEC2ERKSsm W
_ZNSt15numpunct_bynameIwED0Ev W
_ZNSt15numpunct_bynameIwED1Ev W
_ZNSt15numpunct_bynameIwED2Ev W
_ZNSt15time_get_bynameIcSt19istreambuf_iteratorIcSt11char_traitsIcEEEC1EPKcm W
_ZNSt15time_get_bynameIcSt19istreambuf_iteratorIcSt11char_traitsIcEEEC1ERKSsm W
_ZNSt15time_get_bynameIcSt19istreambuf_iteratorIcSt11char_traitsIcEEEC2EPKcm W
_ZNSt15time_get_bynameIcSt19istreambuf_iteratorIcSt11char_traitsIcEEEC2ERKSsm W
_ZNSt15time_get_bynameIcSt19istreambuf_iteratorIcSt11char_traitsIcEEED0Ev W
_ZNSt15time_get_bynameIcSt19istreambuf_iteratorIcSt11char_traitsIcEEED1Ev W
_ZNSt15time_get_bynameIcSt19istreambuf_iteratorIcSt11char_traitsIcEEED2Ev W
_ZNSt15time_get_bynameIwSt19istreambuf_iteratorIwSt11char_traitsIwEEEC1EPKcm W
_ZNSt15time_get_bynameIwSt19istreambuf_iteratorIwSt11char_traitsIwEEEC1ERKSsm W
_ZNSt15time_get_bynameIwSt19istreambuf_iteratorIwSt11char_traitsIwEEEC2EPKcm W
_ZNSt15time_get_bynameIwSt19istreambuf_iteratorIwSt11char_traitsIwEEEC2ERKSsm W
_ZNSt15time_get_bynameIwSt19istreambuf_iteratorIwSt11char_traitsIwEEED0Ev W
_ZNSt15time_get_bynameIwSt19istreambuf_iteratorIwSt11char_traitsIwEEED1Ev W
_ZNSt15time_get_bynameIwSt19istreambuf_iteratorIwSt11char_traitsIwEEED2Ev W
_ZNSt15time_put_bynameIcSt19ostreambuf_iteratorIcSt11char_traitsIcEEEC1EPKcm W
_ZNSt15time_put_bynameIcSt19ostreambuf_iteratorIcSt11char_traitsIcEEEC1ERKNSt7__cxx1112basic_stringIcS2_SaIcEEEm W
_ZNSt15time_put_bynameIcSt19ostreambuf_iteratorIcSt11char_traitsIcEEEC1ERKSsm W
_ZNSt15time_put_bynameIcSt19ostreambuf_iteratorIcSt11char_traitsIcEEEC2EPKcm W
_ZNSt15time_put_bynameIcSt19ostreambuf_iteratorIcSt11char_traitsIcEEEC2ERKNSt7__cxx1112basic_stringIcS2_SaIcEEEm W
_ZNSt15time_put_bynameIcSt19ostreambuf_iteratorIcSt11char_traitsIcEEEC2ERKSsm W
_ZNSt15time_put_bynameIcSt19ostreambuf_iteratorIcSt11char_traitsIcEEED0Ev W
_ZNSt15time_put_bynameIcSt19ostreambuf_iteratorIcSt11char_traitsIcEEED1Ev W
_ZNSt15time_put_bynameIcSt19ostreambuf_iteratorIcSt11char_traitsIcEEED2Ev W
_ZNSt15time_put_bynameIwSt19ostreambuf_iteratorIwSt11char_traitsIwEEEC1EPKcm W
_ZNSt15time_put_bynameIwSt19ostreambuf_iteratorIwSt11char_traitsIwEEEC1ERKNSt7__cxx1112basic_stringIcS1_IcESaIcEEEm W
_ZNSt15time_put_bynameIwSt19ostreambuf_iteratorIwSt11char_traitsIwEEEC1ERKSsm W
_ZNSt15time_put_bynameIwSt19ostreambuf_iteratorIwSt11char_traitsIwEEEC2EPKcm W
_ZNSt15time_put_bynameIwSt19ostreambuf_iteratorIwSt11char_traitsIwEEEC2ERKNSt7__cxx1112basic_stringIcS1_IcESaIcEEEm W
_ZNSt15time_put_bynameIwSt19ostreambuf_iteratorIwSt11char_traitsIwEEEC2ERKSsm W
_ZNSt15time_put_bynameIwSt19ostreambuf_iteratorIwSt11char_traitsIwEEED0Ev W
_ZNSt15time_put_bynameIwSt19ostreambuf_iteratorIwSt11char_traitsIwEEED1Ev W
_ZNSt15time_put_bynameIwSt19ostreambuf_iteratorIwSt11char_traitsIwEEED2Ev W
_ZNSt15underflow_errorC1EPKc T
_ZNSt15underflow_errorC1ERKNSt7__cxx1112basic_stringIcSt11char_traitsIcESaIcEEE T
_ZNSt15underflow_errorC1ERKSs T
_ZNSt15underflow_errorC2EPKc T
_ZNSt15underflow_errorC2ERKNSt7__cxx1112basic_stringIcSt11char_traitsIcESaIcEEE T
_ZNSt15underflow_errorC2ERKSs T
_ZNSt15underflow_errorD0Ev T
_ZNSt15underflow_errorD1Ev T
_ZNSt15underflow_errorD2Ev T
_ZNSt16__numpunct_cacheIcE8_M_cacheERKSt6locale W
_ZNSt16__numpunct_cacheIcEC1Em W
_ZNSt16__numpunct_cacheIcEC2Em W
_ZNSt16__numpunct_cacheIcED0Ev W
_ZNSt16__numpunct_cacheIcED1Ev W
_ZNSt16__numpunct_cacheIcED2Ev W
_ZNSt16__numpunct_cacheIwE8_M_cacheERKSt6locale W
_ZNSt16__numpunct_cacheIwEC1Em W
_ZNSt16__numpunct_cacheIwEC2Em W
_ZNSt16__numpunct_cacheIwED0Ev W
_ZNSt16__numpunct_cacheIwED1Ev W
_ZNSt16__numpunct_cacheIwED2Ev W
_ZNSt16__time_get_state17_M_finalize_stateEP2tm T
_ZNSt16invalid_argumentC1EPKc T
_ZNSt16invalid_argumentC1ERKNSt7__cxx1112basic_stringIcSt11char_traitsIcESaIcEEE T
_ZNSt16invalid_argumentC1ERKSs T
_ZNSt16invalid_argumentC2EPKc T
_ZNSt16invalid_argumentC2ERKNSt7__cxx1112basic_stringIcSt11char_traitsIcESaIcEEE T
_ZNSt16invalid_argumentC2ERKSs T
_ZNSt16invalid_argumentD0Ev T
_ZNSt16invalid_argumentD1Ev T
_ZNSt16invalid_argumentD2Ev T
_ZNSt17_Function_handlerIFdRKdS1_EZN14G4Accumulables16GetMergeFunctionIdEESt8functionIFT_RKS6_S8_EE11G4MergeModeEUlS1_S1_E_E10_M_managerERSt9_Any_dataRKSE_St18_Manager_operation W
_ZNSt17_Function_handlerIFdRKdS1_EZN14G4Accumulables16GetMergeFunctionIdEESt8functionIFT_RKS6_S8_EE11G4MergeModeEUlS1_S1_E_E9_M_invokeERKSt9_Any_dataS1_S1_ W
_ZNSt17__timepunct_cacheIcE12_S_timezonesE D 70
_ZNSt17__timepunct_cacheIcEC1Em W
_ZNSt17__timepunct_cacheIcEC2Em W
_ZNSt17__timepunct_cacheIcED0Ev W
_ZNSt17__timepunct_cacheIcED1Ev W
_ZNSt17__timepunct_cacheIcED2Ev W
_ZNSt17__timepunct_cacheIwE12_S_timezonesE D 70
_ZNSt17__timepunct_cacheIwEC1Em W
_ZNSt17__timepunct_cacheIwEC2Em W
_ZNSt17__timepunct_cacheIwED0Ev W
_ZNSt17__timepunct_cacheIwED1Ev W
_ZNSt17__timepunct_cacheIwED2Ev W
_ZNSt17bad_function_callD0Ev T
_ZNSt17bad_function_callD1Ev T
_ZNSt17bad_function_callD2Ev T
_ZNSt17moneypunct_bynameIcLb0EE4intlE u
_ZNSt17moneypunct_bynameIcLb0EEC1EPKcm W
_ZNSt17moneypunct_bynameIcLb0EEC1ERKSsm W
_ZNSt17moneypunct_bynameIcLb0EEC2EPKcm W
_ZNSt17moneypunct_bynameIcLb0EEC2ERKSsm W
_ZNSt17moneypunct_bynameIcLb0EED0Ev W
_ZNSt17moneypunct_bynameIcLb0EED1Ev W
_ZNSt17moneypunct_bynameIcLb0EED2Ev W
_ZNSt17moneypunct_bynameIcLb1EE4intlE u
_ZNSt17moneypunct_bynameIcLb1EEC1EPKcm W
_ZNSt17moneypunct_bynameIcLb1EEC1ERKSsm W
_ZNSt17moneypunct_bynameIcLb1EEC2EPKcm W
_ZNSt17moneypunct_bynameIcLb1EEC2ERKSsm W
_ZNSt17moneypunct_bynameIcLb1EED0Ev W
_ZNSt17moneypunct_bynameIcLb1EED1Ev W
_ZNSt17moneypunct_bynameIcLb1EED2Ev W
_ZNSt17moneypunct_bynameIwLb0EE4intlE u
_ZNSt17moneypunct_bynameIwLb0EEC1EPKcm W
_ZNSt17moneypunct_bynameIwLb0EEC1ERKSsm W
_ZNSt17moneypunct_bynameIwLb0EEC2EPKcm W
_ZNSt17moneypunct_bynameIwLb0EEC2ERKSsm W
_ZNSt17moneypunct_bynameIwLb0EED0Ev W
_ZNSt17moneypunct_bynameIwLb0EED1Ev W
_ZNSt17moneypunct_bynameIwLb0EED2Ev W
_ZNSt17moneypunct_bynameIwLb1EE4intlE u
_ZNSt17moneypunct_bynameIwLb1EEC1EPKcm W
_ZNSt17moneypunct_bynameIwLb1EEC1ERKSsm W
_ZNSt17moneypunct_bynameIwLb1EEC2EPKcm W
_ZNSt17moneypunct_bynameIwLb1EEC2ERKSsm W
_ZNSt17moneypunct_bynameIwLb1EED0Ev W
_ZNSt17moneypunct_bynameIwLb1EED1Ev W
_ZNSt17moneypunct_bynameIwLb1EED2Ev W
_ZNSt18__moneypunct_cacheIcLb0EE8_M_cacheERKSt6locale W
_ZNSt18__moneypunct_cacheIcLb0EEC1Em W
_ZNSt18__moneypunct_cacheIcLb0EEC2Em W
_ZNSt18__moneypunct_cacheIcLb0EED0Ev W
_ZNSt18__moneypunct_cacheIcLb0EED1Ev W
_ZNSt18__moneypunct_cacheIcLb0EED2Ev W
_ZNSt18__moneypunct_cacheIcLb1EE8_M_cacheERKSt6locale W
_ZNSt18__moneypunct_cacheIcLb1EEC1Em W
_ZNSt18__moneypunct_cacheIcLb1EEC2Em W
_ZNSt18__moneypunct_cacheIcLb1EED0Ev W
_ZNSt18__moneypunct_cacheIcLb1EED1Ev W
_ZNSt18__moneypunct_cacheIcLb1EED2Ev W
_ZNSt18__moneypunct_cacheIwLb0EE8_M_cacheERKSt6locale W
_ZNSt18__moneypunct_cacheIwLb0EEC1Em W
_ZNSt18__moneypunct_cacheIwLb0EEC2Em W
_ZNSt18__moneypunct_cacheIwLb0EED0Ev W
_ZNSt18__moneypunct_cacheIwLb0EED1Ev W
_ZNSt18__moneypunct_cacheIwLb0EED2Ev W
_ZNSt18__moneypunct_cacheIwLb1EE8_M_cacheERKSt6locale W
_ZNSt18__moneypunct_cacheIwLb1EEC1Em W
_ZNSt18__moneypunct_cacheIwLb1EEC2Em W
_ZNSt18__moneypunct_cacheIwLb1EED0Ev W
_ZNSt18__moneypunct_cacheIwLb1EED1Ev W
_ZNSt18__moneypunct_cacheIwLb1EED2Ev W
_ZNSt19__codecvt_utf8_baseIDiED0Ev T
_ZNSt19__codecvt_utf8_baseIDiED1Ev T
_ZNSt19__codecvt_utf8_baseIDiED2Ev T
_ZNSt19__codecvt_utf8_baseIDsED0Ev T
_ZNSt19__codecvt_utf8_baseIDsED1Ev T
_ZNSt19__codecvt_utf8_baseIDsED2Ev T
_ZNSt19__codecvt_utf8_baseIwED0Ev T
_ZNSt19__codecvt_utf8_baseIwED1Ev T
_ZNSt19__codecvt_utf8_baseIwED2Ev T
_ZNSt19__iosfail_type_infoD0Ev T
_ZNSt19__iosfail_type_infoD1Ev T
_ZNSt19__iosfail_type_infoD2Ev T
_ZNSt20__codecvt_utf16_baseIDiED0Ev T
_ZNSt20__codecvt_utf16_baseIDiED1Ev T
_ZNSt20__codecvt_utf16_baseIDiED2Ev T
_ZNSt20__codecvt_utf16_baseIDsED0Ev T
_ZNSt20__codecvt_utf16_baseIDsED1Ev T
_ZNSt20__codecvt_utf16_baseIDsED2Ev T
_ZNSt20__codecvt_utf16_baseIwED0Ev T
_ZNSt20__codecvt_utf16_baseIwED1Ev T
_ZNSt20__codecvt_utf16_baseIwED2Ev T
_ZNSt20bad_array_new_lengthD0Ev T
_ZNSt20bad_array_new_lengthD1Ev T
_ZNSt20bad_array_new_lengthD2Ev T
_ZNSt25__codecvt_utf8_utf16_baseIDiED0Ev T
_ZNSt25__codecvt_utf8_utf16_baseIDiED1Ev T
_ZNSt25__codecvt_utf8_utf16_baseIDiED2Ev T
_ZNSt25__codecvt_utf8_utf16_baseIDsED0Ev T
_ZNSt25__codecvt_utf8_utf16_baseIDsED1Ev T
_ZNSt25__codecvt_utf8_utf16_baseIDsED2Ev T
_ZNSt25__codecvt_utf8_utf16_baseIwED0Ev T
_ZNSt25__codecvt_utf8_utf16_baseIwED1Ev T
_ZNSt25__codecvt_utf8_utf16_baseIwED2Ev T
_ZNSt3_V214error_categoryD0Ev T
_ZNSt3_V214error_categoryD1Ev T
_ZNSt3_V214error_categoryD2Ev T
_ZNSt3_V215system_categoryEv T
_ZNSt3_V216generic_categoryEv T
_ZNSt5__padIcSt11char_traitsIcEE6_S_padERSt8ios_basecPcPKcll W
_ZNSt5__padIwSt11char_traitsIwEE6_S_padERSt8ios_basewPwPKwll W
_ZNSt5ctypeIcE10table_sizeE R
_ZNSt5ctypeIcE13classic_tableEv T
_ZNSt5ctypeIcE2idE B 8
_ZNSt5ctypeIcEC1EP15__locale_structPKtbm T
_ZNSt5ctypeIcEC1EPKtbm T
_ZNSt5ctypeIcEC2EP15__locale_structPKtbm T
_ZNSt5ctypeIcEC2EPKtbm T
_ZNSt5ctypeIcED0Ev T
_ZNSt5ctypeIcED1Ev T
_ZNSt5ctypeIcED2Ev T
_ZNSt5ctypeIwE19_M_initialize_ctypeEv T
_ZNSt5ctypeIwE2idE B 8
_ZNSt5ctypeIwEC1EP15__locale_structm T
_ZNSt5ctypeIwEC1Em T
_ZNSt5ctypeIwEC2EP15__locale_structm T
_ZNSt5ctypeIwEC2Em T
_ZNSt5ctypeIwED0Ev T
_ZNSt5ctypeIwED1Ev T
_ZNSt5ctypeIwED2Ev T
_ZNSt6locale10_S_classicE B 8
_ZNSt6locale13_S_categoriesE D 8
_ZNSt6locale13_S_initializeEv T
_ZNSt6locale17_S_twinned_facetsE D 110
_ZNSt6locale18_S_initialize_onceEv T
_ZNSt6locale21_S_normalize_categoryEi T
_ZNSt6locale2id11_S_refcountE B 4
_ZNSt6locale3allE R
_ZNSt6locale4noneE R
_ZNSt6locale4timeE R
_ZNSt6locale5_Impl10_S_id_timeE D 38
_ZNSt6locale5_Impl11_S_id_ctypeE D 48
_ZNSt6locale5_Impl13_M_init_extraEPPNS_5facetE T
_ZNSt6locale5_Impl13_M_init_extraEPvS1_PKcS3_ T
_ZNSt6locale5_Impl13_S_id_collateE D 18
_ZNSt6locale5_Impl13_S_id_numericE D 38
_ZNSt6locale5_Impl14_S_id_messagesE D 18
_ZNSt6locale5_Impl14_S_id_monetaryE D 48
_ZNSt6locale5_Impl16_M_install_cacheEPKNS_5facetEm T
_ZNSt6locale5_Impl16_M_install_facetEPKNS_2idEPKNS_5facetE T
_ZNSt6locale5_Impl16_M_replace_facetEPKS0_PKNS_2idE T
_ZNSt6locale5_Impl19_M_replace_categoryEPKS0_PKPKNS_2idE T
_ZNSt6locale5_Impl19_S_facet_categoriesE D 38
_ZNSt6locale5_ImplC1ERKS0_m T
_ZNSt6locale5_ImplC1Em T
_ZNSt6locale5_ImplC2ERKS0_m T
_ZNSt6locale5_ImplC2Em T
_ZNSt6locale5_ImplD1Ev T
_ZNSt6locale5_ImplD2Ev T
_ZNSt6locale5ctypeE R
_ZNSt6locale5facet11_S_c_localeE B 8
_ZNSt6locale5facet13_S_get_c_nameEv T
_ZNSt6locale5facet15_S_get_c_localeEv T
_ZNSt6locale5facet17_S_clone_c_localeERP15__locale_struct T
_ZNSt6locale5facet18_S_create_c_localeERP15__locale_structPKcS2_ T
_ZNSt6locale5facet18_S_initialize_onceEv T
_ZNSt6locale5facet19_S_destroy_c_localeERP15__locale_struct T
_ZNSt6locale5facet20_S_lc_ctype_c_localeEP15__locale_structPKc T
_ZNSt6locale5facet7_S_onceE B 4
_ZNSt6locale5facet9_S_c_nameE R
_ZNSt6locale5facetD0Ev T
_ZNSt6locale5facetD1Ev T
_ZNSt6locale5facetD2Ev T
_ZNSt6locale6globalERKS_ T
_ZNSt6locale7_S_onceE B 4
_ZNSt6locale7classicEv T
_ZNSt6locale7collateE R
_ZNSt6locale7numericE R
_ZNSt6locale8messagesE R
_ZNSt6locale8monetaryE R
_ZNSt6locale9_S_globalE B 8
_ZNSt6localeC1EPNS_5_ImplE T
_ZNSt6localeC1ERKS_ T
_ZNSt6localeC1Ev T
_ZNSt6localeC2EPNS_5_ImplE T
_ZNSt6localeC2ERKS_ T
_ZNSt6localeC2Ev T
_ZNSt6localeD1Ev T
_ZNSt6localeD2Ev T
_ZNSt6localeaSERKS_ T
_ZNSt6vectorIPSt12Catalog_infoSaIS1_EE17_M_realloc_insertEN9__gnu_cxx17__normal_iteratorIPS1_S3_EERKS1_ W
_ZNSt7__cxx1110moneypunctIcLb0EE24_M_initialize_moneypunctEP15__locale_structPKc T
_ZNSt7__cxx1110moneypunctIcLb0EE2idE u
_ZNSt7__cxx1110moneypunctIcLb0EE4intlE u
_ZNSt7__cxx1110moneypunctIcLb0EEC1EP15__locale_structPKcm W
_ZNSt7__cxx1110moneypunctIcLb0EEC1EPSt18__moneypunct_cacheIcLb0EEm W
_ZNSt7__cxx1110moneypunctIcLb0EEC1Em W
_ZNSt7__cxx1110moneypunctIcLb0EEC2EP15__locale_structPKcm W
_ZNSt7__cxx1110moneypunctIcLb0EEC2EPSt18__moneypunct_cacheIcLb0EEm W
_ZNSt7__cxx1110moneypunctIcLb0EEC2Em W
_ZNSt7__cxx1110moneypunctIcLb0EED0Ev T
_ZNSt7__cxx1110moneypunctIcLb0EED1Ev T
_ZNSt7__cxx1110moneypunctIcLb0EED2Ev T
_ZNSt7__cxx1110moneypunctIcLb1EE24_M_initialize_moneypunctEP15__locale_structPKc T
_ZNSt7__cxx1110moneypunctIcLb1EE2idE u
_ZNSt7__cxx1110moneypunctIcLb1EE4intlE u
_ZNSt7__cxx1110moneypunctIcLb1EEC1EP15__locale_structPKcm W
_ZNSt7__cxx1110moneypunctIcLb1EEC1EPSt18__moneypunct_cacheIcLb1EEm W
_ZNSt7__cxx1110moneypunctIcLb1EEC1Em W
_ZNSt7__cxx1110moneypunctIcLb1EEC2EP15__locale_structPKcm W
_ZNSt7__cxx1110moneypunctIcLb1EEC2EPSt18__moneypunct_cacheIcLb1EEm W
_ZNSt7__cxx1110moneypunctIcLb1EEC2Em W
_ZNSt7__cxx1110moneypunctIcLb1EED0Ev T
_ZNSt7__cxx1110moneypunctIcLb1EED1Ev T
_ZNSt7__cxx1110moneypunctIcLb1EED2Ev T
_ZNSt7__cxx1110moneypunctIwLb0EE24_M_initialize_moneypunctEP15__locale_structPKc T
_ZNSt7__cxx1110moneypunctIwLb0EE2idE u
_ZNSt7__cxx1110moneypunctIwLb0EE4intlE u
_ZNSt7__cxx1110moneypunctIwLb0EEC1EP15__locale_structPKcm W
_ZNSt7__cxx1110moneypunctIwLb0EEC1EPSt18__moneypunct_cacheIwLb0EEm W
_ZNSt7__cxx1110moneypunctIwLb0EEC1Em W
_ZNSt7__cxx1110moneypunctIwLb0EEC2EP15__locale_structPKcm W
_ZNSt7__cxx1110moneypunctIwLb0EEC2EPSt18__moneypunct_cacheIwLb0EEm W
_ZNSt7__cxx1110moneypunctIwLb0EEC2Em W
_ZNSt7__cxx1110moneypunctIwLb0EED0Ev T
_ZNSt7__cxx1110moneypunctIwLb0EED1Ev T
_ZNSt7__cxx1110moneypunctIwLb0EED2Ev T
_ZNSt7__cxx1110moneypunctIwLb1EE24_M_initialize_moneypunctEP15__locale_structPKc T
_ZNSt7__cxx1110moneypunctIwLb1EE2idE u
_ZNSt7__cxx1110moneypunctIwLb1EE4intlE u
_ZNSt7__cxx1110moneypunctIwLb1EEC1EP15__locale_structPKcm W
_ZNSt7__cxx1110moneypunctIwLb1EEC1EPSt18__moneypunct_cacheIwLb1EEm W
_ZNSt7__cxx1110moneypunctIwLb1EEC1Em W
_ZNSt7__cxx1110moneypunctIwLb1EEC2EP15__locale_structPKcm W
_ZNSt7__cxx1110moneypunctIwLb1EEC2EPSt18__moneypunct_cacheIwLb1EEm W
_ZNSt7__cxx1110moneypunctIwLb1EEC2Em W
_ZNSt7__cxx1110moneypunctIwLb1EED0Ev T
_ZNSt7__cxx1110moneypunctIwLb1EED1Ev T
_ZNSt7__cxx1110moneypunctIwLb1EED2Ev T
_ZNSt7__cxx1112basic_stringIcSt11char_traitsIcESaIcEE10_M_destroyEm W
_ZNSt7__cxx1112basic_stringIcSt11char_traitsIcESaIcEE10_M_disposeEv W
_ZNSt7__cxx1112basic_stringIcSt11char_traitsIcESaIcEE10_M_replaceEmmPKcm W
_ZNSt7__cxx1112basic_stringIcSt11char_traitsIcESaIcEE10_S_compareEmm W
_ZNSt7__cxx1112basic_stringIcSt11char_traitsIcESaIcEE11_M_capacityEm W
_ZNSt7__cxx1112basic_stringIcSt11char_traitsIcESaIcEE12_Alloc_hiderC1EPcOS3_ W
_ZNSt7__cxx1112basic_stringIcSt11char_traitsIcESaIcEE12_Alloc_hiderC1EPcRKS3_ W
_ZNSt7__cxx1112basic_stringIcSt11char_traitsIcESaIcEE12_Alloc_hiderC2EPcOS3_ W
_ZNSt7__cxx1112basic_stringIcSt11char_traitsIcESaIcEE12_Alloc_hiderC2EPcRKS3_ W
_ZNSt7__cxx1112basic_stringIcSt11char_traitsIcESaIcEE12_M_constructEmc W
_ZNSt7__cxx1112basic_stringIcSt11char_traitsIcESaIcEE12_M_constructIN9__gnu_cxx17__normal_iteratorIPKcS4_EEEEvT_SB_St20forward_iterator_tag W
_ZNSt7__cxx1112basic_stringIcSt11char_traitsIcESaIcEE12_M_constructIN9__gnu_cxx17__normal_iteratorIPcS4_EEEEvT_SA_St20forward_iterator_tag W
_ZNSt7__cxx1112basic_stringIcSt11char_traitsIcESaIcEE12_M_constructIPKcEEvT_S8_St20forward_iterator_tag W
_ZNSt7__cxx1112basic_stringIcSt11char_traitsIcESaIcEE12_M_constructIPcEEvT_S7_St20forward_iterator_tag W
_ZNSt7__cxx1112basic_stringIcSt11char_traitsIcESaIcEE13_M_local_dataEv W
_ZNSt7__cxx1112basic_stringIcSt11char_traitsIcESaIcEE13_M_set_lengthEm W
_ZNSt7__cxx1112basic_stringIcSt11char_traitsIcESaIcEE13_S_copy_charsEPcN9__gnu_cxx17__normal_iteratorIPKcS4_EESA_ W
_ZNSt7__cxx1112basic_stringIcSt11char_traitsIcESaIcEE13_S_copy_charsEPcN9__gnu_cxx17__normal_iteratorIS5_S4_EES8_ W
_ZNSt7__cxx1112basic_stringIcSt11char_traitsIcESaIcEE13_S_copy_charsEPcPKcS7_ W
_ZNSt7__cxx1112basic_stringIcSt11char_traitsIcESaIcEE13_S_copy_charsEPcS5_S5_ W
_ZNSt7__cxx1112basic_stringIcSt11char_traitsIcESaIcEE13shrink_to_fitEv W
_ZNSt7__cxx1112basic_stringIcSt11char_traitsIcESaIcEE14_M_replace_auxEmmmc W
_ZNSt7__cxx1112basic_stringIcSt11char_traitsIcESaIcEE16_M_get_allocatorEv W
_ZNSt7__cxx1112basic_stringIcSt11char_traitsIcESaIcEE17_M_use_local_dataEv W
_ZNSt7__cxx1112basic_stringIcSt11char_traitsIcESaIcEE18_M_construct_aux_2Emc W
_ZNSt7__cxx1112basic_stringIcSt11char_traitsIcESaIcEE2atEm W
_ZNSt7__cxx1112basic_stringIcSt11char_traitsIcESaIcEE3endEv W
_ZNSt7__cxx1112basic_stringIcSt11char_traitsIcESaIcEE4backEv W
_ZNSt7__cxx1112basic_stringIcSt11char_traitsIcESaIcEE4nposE u
_ZNSt7__cxx1112basic_stringIcSt11char_traitsIcESaIcEE4rendEv W
_ZNSt7__cxx1112basic_stringIcSt11char_traitsIcESaIcEE4swapERS4_ W
_ZNSt7__cxx1112basic_stringIcSt11char_traitsIcESaIcEE5beginEv W
_ZNSt7__cxx1112basic_stringIcSt11char_traitsIcESaIcEE5clearEv W
_ZNSt7__cxx1112basic_stringIcSt11char_traitsIcESaIcEE5eraseEN9__gnu_cxx17__normal_iteratorIPKcS4_EE W
_ZNSt7__cxx1112basic_stringIcSt11char_traitsIcESaIcEE5eraseEN9__gnu_cxx17__normal_iteratorIPKcS4_EES9_ W
_ZNSt7__cxx1112basic_stringIcSt11char_traitsIcESaIcEE5eraseEN9__gnu_cxx17__normal_iteratorIPcS4_EE W
_ZNSt7__cxx1112basic_stringIcSt11char_traitsIcESaIcEE5eraseEN9__gnu_cxx17__normal_iteratorIPcS4_EES8_ W
_ZNSt7__cxx1112basic_stringIcSt11char_traitsIcESaIcEE5eraseEmm W
_ZNSt7__cxx1112basic_stringIcSt11char_traitsIcESaIcEE5frontEv W
_ZNSt7__cxx1112basic_stringIcSt11char_traitsIcESaIcEE6appendEPKc W
_ZNSt7__cxx1112basic_stringIcSt11char_traitsIcESaIcEE6appendEPKcm W
_ZNSt7__cxx1112basic_stringIcSt11char_traitsIcESaIcEE6appendERKS4_ W
_ZNSt7__cxx1112basic_stringIcSt11char_traitsIcESaIcEE6appendERKS4_mm W
_ZNSt7__cxx1112basic_stringIcSt11char_traitsIcESaIcEE6appendESt16initializer_listIcE W
_ZNSt7__cxx1112basic_stringIcSt11char_traitsIcESaIcEE6appendEmc W
_ZNSt7__cxx1112basic_stringIcSt11char_traitsIcESaIcEE6assignEOS4_ W
_ZNSt7__cxx1112basic_stringIcSt11char_traitsIcESaIcEE6assignEPKc W
_ZNSt7__cxx1112basic_stringIcSt11char_traitsIcESaIcEE6assignEPKcm W
_ZNSt7__cxx1112basic_stringIcSt11char_traitsIcESaIcEE6assignERKS4_ W
_ZNSt7__cxx1112basic_stringIcSt11char_traitsIcESaIcEE6assignERKS4_mm W
_ZNSt7__cxx1112basic_stringIcSt11char_traitsIcESaIcEE6assignESt16initializer_listIcE W
_ZNSt7__cxx1112basic_stringIcSt11char_traitsIcESaIcEE6assignEmc W
_ZNSt7__cxx1112basic_stringIcSt11char_traitsIcESaIcEE6insertEN9__gnu_cxx17__normal_iteratorIPKcS4_EESt16initializer_listIcE W
_ZNSt7__cxx1112basic_stringIcSt11char_traitsIcESaIcEE6insertEN9__gnu_cxx17__normal_iteratorIPKcS4_EEc W
_ZNSt7__cxx1112basic_stringIcSt11char_traitsIcESaIcEE6insertEN9__gnu_cxx17__normal_iteratorIPKcS4_EEmc W
_ZNSt7__cxx1112basic_stringIcSt11char_traitsIcESaIcEE6insertEN9__gnu_cxx17__normal_iteratorIPcS4_EESt16initializer_listIcE W
_ZNSt7__cxx1112basic_stringIcSt11char_traitsIcESaIcEE6insertEN9__gnu_cxx17__normal_iteratorIPcS4_EEc W
_ZNSt7__cxx1112basic_stringIcSt11char_traitsIcESaIcEE6insertEN9__gnu_cxx17__normal_iteratorIPcS4_EEmc W
_ZNSt7__cxx1112basic_stringIcSt11char_traitsIcESaIcEE6insertEmPKc W
_ZNSt7__cxx1112basic_stringIcSt11char_traitsIcESaIcEE6insertEmPKcm W
_ZNSt7__cxx1112basic_stringIcSt11char_traitsIcESaIcEE6insertEmRKS4_ W
_ZNSt7__cxx1112basic_stringIcSt11char_traitsIcESaIcEE6insertEmRKS4_mm W
_ZNSt7__cxx1112basic_stringIcSt11char_traitsIcESaIcEE6insertEmmc W
_ZNSt7__cxx1112basic_stringIcSt11char_traitsIcESaIcEE6insertIN9__gnu_cxx17__normal_iteratorIPcS4_EEEEvS9_T_SA_ W
_ZNSt7__cxx1112basic_stringIcSt11char_traitsIcESaIcEE6rbeginEv W
_ZNSt7__cxx1112basic_stringIcSt11char_traitsIcESaIcEE6resizeEm W
_ZNSt7__cxx1112basic_stringIcSt11char_traitsIcESaIcEE6resizeEmc W
_ZNSt7__cxx1112basic_stringIcSt11char_traitsIcESaIcEE7_M_dataEPc W
_ZNSt7__cxx1112basic_stringIcSt11char_traitsIcESaIcEE7_S_copyEPcPKcm W
_ZNSt7__cxx1112basic_stringIcSt11char_traitsIcESaIcEE7_S_moveEPcPKcm W
_ZNSt7__cxx1112basic_stringIcSt11char_traitsIcESaIcEE7replaceEN9__gnu_cxx17__normal_iteratorIPKcS4_EES9_NS6_IPcS4_EESB_ W
_ZNSt7__cxx1112basic_stringIcSt11char_traitsIcESaIcEE7replaceEN9__gnu_cxx17__normal_iteratorIPKcS4_EES9_PcSA_ W
_ZNSt7__cxx1112basic_stringIcSt11char_traitsIcESaIcEE7replaceEN9__gnu_cxx17__normal_iteratorIPKcS4_EES9_RKS4_ W
_ZNSt7__cxx1112basic_stringIcSt11char_traitsIcESaIcEE7replaceEN9__gnu_cxx17__normal_iteratorIPKcS4_EES9_S8_ W
_ZNSt7__cxx1112basic_stringIcSt11char_traitsIcESaIcEE7replaceEN9__gnu_cxx17__normal_iteratorIPKcS4_EES9_S8_S8_ W
_ZNSt7__cxx1112basic_stringIcSt11char_traitsIcESaIcEE7replaceEN9__gnu_cxx17__normal_iteratorIPKcS4_EES9_S8_m W
_ZNSt7__cxx1112basic_stringIcSt11char_traitsIcESaIcEE7replaceEN9__gnu_cxx17__normal_iteratorIPKcS4_EES9_S9_S9_ W
_ZNSt7__cxx1112basic_stringIcSt11char_traitsIcESaIcEE7replaceEN9__gnu_cxx17__normal_iteratorIPKcS4_EES9_St16initializer_listIcE W
_ZNSt7__cxx1112basic_stringIcSt11char_traitsIcESaIcEE7replaceEN9__gnu_cxx17__normal_iteratorIPKcS4_EES9_mc W
_ZNSt7__cxx1112basic_stringIcSt11char_traitsIcESaIcEE7replaceEN9__gnu_cxx17__normal_iteratorIPcS4_EES8_NS6_IPKcS4_EESB_ W
_ZNSt7__cxx1112basic_stringIcSt11char_traitsIcESaIcEE7replaceEN9__gnu_cxx17__normal_iteratorIPcS4_EES8_PKc W
_ZNSt7__cxx1112basic_stringIcSt11char_traitsIcESaIcEE7replaceEN9__gnu_cxx17__normal_iteratorIPcS4_EES8_PKcSA_ W
_ZNSt7__cxx1112basic_stringIcSt11char_traitsIcESaIcEE7replaceEN9__gnu_cxx17__normal_iteratorIPcS4_EES8_PKcm W
_ZNSt7__cxx1112basic_stringIcSt11char_traitsIcESaIcEE7replaceEN9__gnu_cxx17__normal_iteratorIPcS4_EES8_RKS4_ W
_ZNSt7__cxx1112basic_stringIcSt11char_traitsIcESaIcEE7replaceEN9__gnu_cxx17__normal_iteratorIPcS4_EES8_S7_S7_ W
_ZNSt7__cxx1112basic_stringIcSt11char_traitsIcESaIcEE7replaceEN9__gnu_cxx17__normal_iteratorIPcS4_EES8_S8_S8_ W
_ZNSt7__cxx1112basic_stringIcSt11char_traitsIcESaIcEE7replaceEN9__gnu_cxx17__normal_iteratorIPcS4_EES8_mc W
_ZNSt7__cxx1112basic_stringIcSt11char_traitsIcESaIcEE7replaceEmmPKc W
_ZNSt7__cxx1112basic_stringIcSt11char_traitsIcESaIcEE7replaceEmmPKcm W
_ZNSt7__cxx1112basic_stringIcSt11char_traitsIcESaIcEE7replaceEmmRKS4_ W
_ZNSt7__cxx1112basic_stringIcSt11char_traitsIcESaIcEE7replaceEmmRKS4_mm W
_ZNSt7__cxx1112basic_stringIcSt11char_traitsIcESaIcEE7replaceEmmmc W
_ZNSt7__cxx1112basic_stringIcSt11char_traitsIcESaIcEE7reserveEm W
_ZNSt7__cxx1112basic_stringIcSt11char_traitsIcESaIcEE7reserveEv W
_ZNSt7__cxx1112basic_stringIcSt11char_traitsIcESaIcEE8_M_eraseEmm W
_ZNSt7__cxx1112basic_stringIcSt11char_traitsIcESaIcEE8pop_backEv W
_ZNSt7__cxx1112basic_stringIcSt11char_traitsIcESaIcEE9_M_appendEPKcm W
_ZNSt7__cxx1112basic_stringIcSt11char_traitsIcESaIcEE9_M_assignERKS4_ W
_ZNSt7__cxx1112basic_stringIcSt11char_traitsIcESaIcEE9_M_createERmm W
_ZNSt7__cxx1112basic_stringIcSt11char_traitsIcESaIcEE9_M_lengthEm W
_ZNSt7__cxx1112basic_stringIcSt11char_traitsIcESaIcEE9_M_mutateEmmPKcm W
_ZNSt7__cxx1112basic_stringIcSt11char_traitsIcESaIcEE9_S_assignEPcmc W
_ZNSt7__cxx1112basic_stringIcSt11char_traitsIcESaIcEE9push_backEc W
_ZNSt7__cxx1112basic_stringIcSt11char_traitsIcESaIcEEC1EOS4_ W
_ZNSt7__cxx1112basic_stringIcSt11char_traitsIcESaIcEEC1EOS4_RKS3_ W
_ZNSt7__cxx1112basic_stringIcSt11char_traitsIcESaIcEEC1EPKcRKS3_ W
_ZNSt7__cxx1112basic_stringIcSt11char_traitsIcESaIcEEC1EPKcmRKS3_ W
_ZNSt7__cxx1112basic_stringIcSt11char_traitsIcESaIcEEC1ERKS3_ W
_ZNSt7__cxx1112basic_stringIcSt11char_traitsIcESaIcEEC1ERKS4_ W
_ZNSt7__cxx1112basic_stringIcSt11char_traitsIcESaIcEEC1ERKS4_RKS3_ W
_ZNSt7__cxx1112basic_stringIcSt11char_traitsIcESaIcEEC1ERKS4_mRKS3_ W
_ZNSt7__cxx1112basic_stringIcSt11char_traitsIcESaIcEEC1ERKS4_mm W
_ZNSt7__cxx1112basic_stringIcSt11char_traitsIcESaIcEEC1ERKS4_mmRKS3_ W
_ZNSt7__cxx1112basic_stringIcSt11char_traitsIcESaIcEEC1ESt16initializer_listIcERKS3_ W
_ZNSt7__cxx1112basic_stringIcSt11char_traitsIcESaIcEEC1EmcRKS3_ W
_ZNSt7__cxx1112basic_stringIcSt11char_traitsIcESaIcEEC1Ev W
_ZNSt7__cxx1112basic_stringIcSt11char_traitsIcESaIcEEC1IN9__gnu_cxx17__normal_iteratorIPcS4_EEvEET_SA_RKS3_ W
_ZNSt7__cxx1112basic_stringIcSt11char_traitsIcESaIcEEC1IPKcvEET_S8_RKS3_ W
_ZNSt7__cxx1112basic_stringIcSt11char_traitsIcESaIcEEC1IPcvEET_S7_RKS3_ W
_ZNSt7__cxx1112basic_stringIcSt11char_traitsIcESaIcEEC2EOS4_ W
_ZNSt7__cxx1112basic_stringIcSt11char_traitsIcESaIcEEC2EOS4_RKS3_ W
_ZNSt7__cxx1112basic_stringIcSt11char_traitsIcESaIcEEC2EPKcRKS3_ W
_ZNSt7__cxx1112basic_stringIcSt11char_traitsIcESaIcEEC2EPKcmRKS3_ W
_ZNSt7__cxx1112basic_stringIcSt11char_traitsIcESaIcEEC2ERKS3_ W
_ZNSt7__cxx1112basic_stringIcSt11char_traitsIcESaIcEEC2ERKS4_ W
_ZNSt7__cxx1112basic_stringIcSt11char_traitsIcESaIcEEC2ERKS4_RKS3_ W
_ZNSt7__cxx1112basic_stringIcSt11char_traitsIcESaIcEEC2ERKS4_mRKS3_ W
_ZNSt7__cxx1112basic_stringIcSt11char_traitsIcESaIcEEC2ERKS4_mm W
_ZNSt7__cxx1112basic_stringIcSt11char_traitsIcESaIcEEC2ERKS4_mmRKS3_ W
_ZNSt7__cxx1112basic_stringIcSt11char_traitsIcESaIcEEC2ESt16initializer_listIcERKS3_ W
_ZNSt7__cxx1112basic_stringIcSt11char_traitsIcESaIcEEC2EmcRKS3_ W
_ZNSt7__cxx1112basic_stringIcSt11char_traitsIcESaIcEEC2Ev W
_ZNSt7__cxx1112basic_stringIcSt11char_traitsIcESaIcEEC2IN9__gnu_cxx17__normal_iteratorIPcS4_EEvEET_SA_RKS3_ W
_ZNSt7__cxx1112basic_stringIcSt11char_traitsIcESaIcEEC2IPKcvEET_S8_RKS3_ W
_ZNSt7__cxx1112basic_stringIcSt11char_traitsIcESaIcEEC2IPcvEET_S7_RKS3_ W
_ZNSt7__cxx1112basic_stringIcSt11char_traitsIcESaIcEED1Ev W
_ZNSt7__cxx1112basic_stringIcSt11char_traitsIcESaIcEED2Ev W
_ZNSt7__cxx1112basic_stringIcSt11char_traitsIcESaIcEEaSEOS4_ W
_ZNSt7__cxx1112basic_stringIcSt11char_traitsIcESaIcEEaSEPKc W
_ZNSt7__cxx1112basic_stringIcSt11char_traitsIcESaIcEEaSERKS4_ W
_ZNSt7__cxx1112basic_stringIcSt11char_traitsIcESaIcEEaSESt16initializer_listIcE W
_ZNSt7__cxx1112basic_stringIcSt11char_traitsIcESaIcEEaSEc W
_ZNSt7__cxx1112basic_stringIcSt11char_traitsIcESaIcEEixEm W
_ZNSt7__cxx1112basic_stringIcSt11char_traitsIcESaIcEEpLEPKc W
_ZNSt7__cxx1112basic_stringIcSt11char_traitsIcESaIcEEpLERKS4_ W
_ZNSt7__cxx1112basic_stringIcSt11char_traitsIcESaIcEEpLESt16initializer_listIcE W
_ZNSt7__cxx1112basic_stringIcSt11char_traitsIcESaIcEEpLEc W
_ZNSt7__cxx1112basic_stringIwSt11char_traitsIwESaIwEE10_M_destroyEm W
_ZNSt7__cxx1112basic_stringIwSt11char_traitsIwESaIwEE10_M_disposeEv W
_ZNSt7__cxx1112basic_stringIwSt11char_traitsIwESaIwEE10_M_replaceEmmPKwm W
_ZNSt7__cxx1112basic_stringIwSt11char_traitsIwESaIwEE10_S_compareEmm W
_ZNSt7__cxx1112basic_stringIwSt11char_traitsIwESaIwEE11_M_capacityEm W
_ZNSt7__cxx1112basic_stringIwSt11char_traitsIwESaIwEE12_Alloc_hiderC1EPwOS3_ W
_ZNSt7__cxx1112basic_stringIwSt11char_traitsIwESaIwEE12_Alloc_hiderC1EPwRKS3_ W
_ZNSt7__cxx1112basic_stringIwSt11char_traitsIwESaIwEE12_Alloc_hiderC2EPwOS3_ W
_ZNSt7__cxx1112basic_stringIwSt11char_traitsIwESaIwEE12_Alloc_hiderC2EPwRKS3_ W
_ZNSt7__cxx1112basic_stringIwSt11char_traitsIwESaIwEE12_M_constructEmw W
_ZNSt7__cxx1112basic_stringIwSt11char_traitsIwESaIwEE12_M_constructIN9__gnu_cxx17__normal_iteratorIPKwS4_EEEEvT_SB_St20forward_iterator_tag W
_ZNSt7__cxx1112basic_stringIwSt11char_traitsIwESaIwEE12_M_constructIN9__gnu_cxx17__normal_iteratorIPwS4_EEEEvT_SA_St20forward_iterator_tag W
_ZNSt7__cxx1112basic_stringIwSt11char_traitsIwESaIwEE12_M_constructIPKwEEvT_S8_St20forward_iterator_tag W
_ZNSt7__cxx1112basic_stringIwSt11char_traitsIwESaIwEE12_M_constructIPwEEvT_S7_St20forward_iterator_tag W
_ZNSt7__cxx1112basic_stringIwSt11char_traitsIwESaIwEE13_M_local_dataEv W
_ZNSt7__cxx1112basic_stringIwSt11char_traitsIwESaIwEE13_M_set_lengthEm W
_ZNSt7__cxx1112basic_stringIwSt11char_traitsIwESaIwEE13_S_copy_charsEPwN9__gnu_cxx17__normal_iteratorIPKwS4_EESA_ W
_ZNSt7__cxx1112basic_stringIwSt11char_traitsIwESaIwEE13_S_copy_charsEPwN9__gnu_cxx17__normal_iteratorIS5_S4_EES8_ W
_ZNSt7__cxx1112basic_stringIwSt11char_traitsIwESaIwEE13_S_copy_charsEPwPKwS7_ W
_ZNSt7__cxx1112basic_stringIwSt11char_traitsIwESaIwEE13_S_copy_charsEPwS5_S5_ W
_ZNSt7__cxx1112basic_stringIwSt11char_traitsIwESaIwEE13shrink_to_fitEv W
_ZNSt7__cxx1112basic_stringIwSt11char_traitsIwESaIwEE14_M_replace_auxEmmmw W
_ZNSt7__cxx1112basic_stringIwSt11char_traitsIwESaIwEE16_M_get_allocatorEv W
_ZNSt7__cxx1112basic_stringIwSt11char_traitsIwESaIwEE17_M_use_local_dataEv W
_ZNSt7__cxx1112basic_stringIwSt11char_traitsIwESaIwEE18_M_construct_aux_2Emw W
_ZNSt7__cxx1112basic_stringIwSt11char_traitsIwESaIwEE2atEm W
_ZNSt7__cxx1112basic_stringIwSt11char_traitsIwESaIwEE3endEv W
_ZNSt7__cxx1112basic_stringIwSt11char_traitsIwESaIwEE4backEv W
_ZNSt7__cxx1112basic_stringIwSt11char_traitsIwESaIwEE4nposE u
_ZNSt7__cxx1112basic_stringIwSt11char_traitsIwESaIwEE4rendEv W
_ZNSt7__cxx1112basic_stringIwSt11char_traitsIwESaIwEE4swapERS4_ W
_ZNSt7__cxx1112basic_stringIwSt11char_traitsIwESaIwEE5beginEv W
_ZNSt7__cxx1112basic_stringIwSt11char_traitsIwESaIwEE5clearEv W
_ZNSt7__cxx1112basic_stringIwSt11char_traitsIwESaIwEE5eraseEN9__gnu_cxx17__normal_iteratorIPKwS4_EE W
_ZNSt7__cxx1112basic_stringIwSt11char_traitsIwESaIwEE5eraseEN9__gnu_cxx17__normal_iteratorIPKwS4_EES9_ W
_ZNSt7__cxx1112basic_stringIwSt11char_traitsIwESaIwEE5eraseEN9__gnu_cxx17__normal_iteratorIPwS4_EE W
_ZNSt7__cxx1112basic_stringIwSt11char_traitsIwESaIwEE5eraseEN9__gnu_cxx17__normal_iteratorIPwS4_EES8_ W
_ZNSt7__cxx1112basic_stringIwSt11char_traitsIwESaIwEE5eraseEmm W
_ZNSt7__cxx1112basic_stringIwSt11char_traitsIwESaIwEE5frontEv W
_ZNSt7__cxx1112basic_stringIwSt11char_traitsIwESaIwEE6appendEPKw W
_ZNSt7__cxx1112basic_stringIwSt11char_traitsIwESaIwEE6appendEPKwm W
_ZNSt7__cxx1112basic_stringIwSt11char_traitsIwESaIwEE6appendERKS4_ W
_ZNSt7__cxx1112basic_stringIwSt11char_traitsIwESaIwEE6appendERKS4_mm W
_ZNSt7__cxx1112basic_stringIwSt11char_traitsIwESaIwEE6appendESt16initializer_listIwE W
_ZNSt7__cxx1112basic_stringIwSt11char_traitsIwESaIwEE6appendEmw W
_ZNSt7__cxx1112basic_stringIwSt11char_traitsIwESaIwEE6assignEOS4_ W
_ZNSt7__cxx1112basic_stringIwSt11char_traitsIwESaIwEE6assignEPKw W
_ZNSt7__cxx1112basic_stringIwSt11char_traitsIwESaIwEE6assignEPKwm W
_ZNSt7__cxx1112basic_stringIwSt11char_traitsIwESaIwEE6assignERKS4_ W
_ZNSt7__cxx1112basic_stringIwSt11char_traitsIwESaIwEE6assignERKS4_mm W
_ZNSt7__cxx1112basic_stringIwSt11char_traitsIwESaIwEE6assignESt16initializer_listIwE W
_ZNSt7__cxx1112basic_stringIwSt11char_traitsIwESaIwEE6assignEmw W
_ZNSt7__cxx1112basic_stringIwSt11char_traitsIwESaIwEE6insertEN9__gnu_cxx17__normal_iteratorIPKwS4_EESt16initializer_listIwE W
_ZNSt7__cxx1112basic_stringIwSt11char_traitsIwESaIwEE6insertEN9__gnu_cxx17__normal_iteratorIPKwS4_EEmw W
_ZNSt7__cxx1112basic_stringIwSt11char_traitsIwESaIwEE6insertEN9__gnu_cxx17__normal_iteratorIPKwS4_EEw W
_ZNSt7__cxx1112basic_stringIwSt11char_traitsIwESaIwEE6insertEN9__gnu_cxx17__normal_iteratorIPwS4_EESt16initializer_listIwE W
_ZNSt7__cxx1112basic_stringIwSt11char_traitsIwESaIwEE6insertEN9__gnu_cxx17__normal_iteratorIPwS4_EEmw W
_ZNSt7__cxx1112basic_stringIwSt11char_traitsIwESaIwEE6insertEN9__gnu_cxx17__normal_iteratorIPwS4_EEw W
_ZNSt7__cxx1112basic_stringIwSt11char_traitsIwESaIwEE6insertEmPKw W
_ZNSt7__cxx1112basic_stringIwSt11char_traitsIwESaIwEE6insertEmPKwm W
_ZNSt7__cxx1112basic_stringIwSt11char_traitsIwESaIwEE6insertEmRKS4_ W
_ZNSt7__cxx1112basic_stringIwSt11char_traitsIwESaIwEE6insertEmRKS4_mm W
_ZNSt7__cxx1112basic_stringIwSt11char_traitsIwESaIwEE6insertEmmw W
_ZNSt7__cxx1112basic_stringIwSt11char_traitsIwESaIwEE6insertIN9__gnu_cxx17__normal_iteratorIPwS4_EEEEvS9_T_SA_ W
_ZNSt7__cxx1112basic_stringIwSt11char_traitsIwESaIwEE6rbeginEv W
_ZNSt7__cxx1112basic_stringIwSt11char_traitsIwESaIwEE6resizeEm W
_ZNSt7__cxx1112basic_stringIwSt11char_traitsIwESaIwEE6resizeEmw W
_ZNSt7__cxx1112basic_stringIwSt11char_traitsIwESaIwEE7_M_dataEPw W
_ZNSt7__cxx1112basic_stringIwSt11char_traitsIwESaIwEE7_S_copyEPwPKwm W
_ZNSt7__cxx1112basic_stringIwSt11char_traitsIwESaIwEE7_S_moveEPwPKwm W
_ZNSt7__cxx1112basic_stringIwSt11char_traitsIwESaIwEE7replaceEN9__gnu_cxx17__normal_iteratorIPKwS4_EES9_NS6_IPwS4_EESB_ W
_ZNSt7__cxx1112basic_stringIwSt11char_traitsIwESaIwEE7replaceEN9__gnu_cxx17__normal_iteratorIPKwS4_EES9_PwSA_ W
_ZNSt7__cxx1112basic_stringIwSt11char_traitsIwESaIwEE7replaceEN9__gnu_cxx17__normal_iteratorIPKwS4_EES9_RKS4_ W
_ZNSt7__cxx1112basic_stringIwSt11char_traitsIwESaIwEE7replaceEN9__gnu_cxx17__normal_iteratorIPKwS4_EES9_S8_ W
_ZNSt7__cxx1112basic_stringIwSt11char_traitsIwESaIwEE7replaceEN9__gnu_cxx17__normal_iteratorIPKwS4_EES9_S8_S8_ W
_ZNSt7__cxx1112basic_stringIwSt11char_traitsIwESaIwEE7replaceEN9__gnu_cxx17__normal_iteratorIPKwS4_EES9_S8_m W
_ZNSt7__cxx1112basic_stringIwSt11char_traitsIwESaIwEE7replaceEN9__gnu_cxx17__normal_iteratorIPKwS4_EES9_S9_S9_ W
_ZNSt7__cxx1112basic_stringIwSt11char_traitsIwESaIwEE7replaceEN9__gnu_cxx17__normal_iteratorIPKwS4_EES9_St16initializer_listIwE W
_ZNSt7__cxx1112basic_stringIwSt11char_traitsIwESaIwEE7replaceEN9__gnu_cxx17__normal_iteratorIPKwS4_EES9_mw W
_ZNSt7__cxx1112basic_stringIwSt11char_traitsIwESaIwEE7replaceEN9__gnu_cxx17__normal_iteratorIPwS4_EES8_NS6_IPKwS4_EESB_ W
_ZNSt7__cxx1112basic_stringIwSt11char_traitsIwESaIwEE7replaceEN9__gnu_cxx17__normal_iteratorIPwS4_EES8_PKw W
_ZNSt7__cxx1112basic_stringIwSt11char_traitsIwESaIwEE7replaceEN9__gnu_cxx17__normal_iteratorIPwS4_EES8_PKwSA_ W
_ZNSt7__cxx1112basic_stringIwSt11char_traitsIwESaIwEE7replaceEN9__gnu_cxx17__normal_iteratorIPwS4_EES8_PKwm W
_ZNSt7__cxx1112basic_stringIwSt11char_traitsIwESaIwEE7replaceEN9__gnu_cxx17__normal_iteratorIPwS4_EES8_RKS4_ W
_ZNSt7__cxx1112basic_stringIwSt11char_traitsIwESaIwEE7replaceEN9__gnu_cxx17__normal_iteratorIPwS4_EES8_S7_S7_ W
_ZNSt7__cxx1112basic_stringIwSt11char_traitsIwESaIwEE7replaceEN9__gnu_cxx17__normal_iteratorIPwS4_EES8_S8_S8_ W
_ZNSt7__cxx1112basic_stringIwSt11char_traitsIwESaIwEE7replaceEN9__gnu_cxx17__normal_iteratorIPwS4_EES8_mw W
_ZNSt7__cxx1112basic_stringIwSt11char_traitsIwESaIwEE7replaceEmmPKw W
_ZNSt7__cxx1112basic_stringIwSt11char_traitsIwESaIwEE7replaceEmmPKwm W
_ZNSt7__cxx1112basic_stringIwSt11char_traitsIwESaIwEE7replaceEmmRKS4_ W
_ZNSt7__cxx1112basic_stringIwSt11char_traitsIwESaIwEE7replaceEmmRKS4_mm W
_ZNSt7__cxx1112basic_stringIwSt11char_traitsIwESaIwEE7replaceEmmmw W
_ZNSt7__cxx1112basic_stringIwSt11char_traitsIwESaIwEE7reserveEm W
_ZNSt7__cxx1112basic_stringIwSt11char_traitsIwESaIwEE7reserveEv W
_ZNSt7__cxx1112basic_stringIwSt11char_traitsIwESaIwEE8_M_eraseEmm W
_ZNSt7__cxx1112basic_stringIwSt11char_traitsIwESaIwEE8pop_backEv W
_ZNSt7__cxx1112basic_stringIwSt11char_traitsIwESaIwEE9_M_appendEPKwm W
_ZNSt7__cxx1112basic_stringIwSt11char_traitsIwESaIwEE9_M_assignERKS4_ W
_ZNSt7__cxx1112basic_stringIwSt11char_traitsIwESaIwEE9_M_createERmm W
_ZNSt7__cxx1112basic_stringIwSt11char_traitsIwESaIwEE9_M_lengthEm W
_ZNSt7__cxx1112basic_stringIwSt11char_traitsIwESaIwEE9_M_mutateEmmPKwm W
_ZNSt7__cxx1112basic_stringIwSt11char_traitsIwESaIwEE9_S_assignEPwmw W
_ZNSt7__cxx1112basic_stringIwSt11char_traitsIwESaIwEE9push_backEw W
_ZNSt7__cxx1112basic_stringIwSt11char_traitsIwESaIwEEC1EOS4_ W
_ZNSt7__cxx1112basic_stringIwSt11char_traitsIwESaIwEEC1EOS4_RKS3_ W
_ZNSt7__cxx1112basic_stringIwSt11char_traitsIwESaIwEEC1EPKwRKS3_ W
_ZNSt7__cxx1112basic_stringIwSt11char_traitsIwESaIwEEC1EPKwmRKS3_ W
_ZNSt7__cxx1112basic_stringIwSt11char_traitsIwESaIwEEC1ERKS3_ W
_ZNSt7__cxx1112basic_stringIwSt11char_traitsIwESaIwEEC1ERKS4_ W
_ZNSt7__cxx1112basic_stringIwSt11char_traitsIwESaIwEEC1ERKS4_RKS3_ W
_ZNSt7__cxx1112basic_stringIwSt11char_traitsIwESaIwEEC1ERKS4_mRKS3_ W
_ZNSt7__cxx1112basic_stringIwSt11char_traitsIwESaIwEEC1ERKS4_mm W
_ZNSt7__cxx1112basic_stringIwSt11char_traitsIwESaIwEEC1ERKS4_mmRKS3_ W
_ZNSt7__cxx1112basic_stringIwSt11char_traitsIwESaIwEEC1ESt16initializer_listIwERKS3_ W
_ZNSt7__cxx1112basic_stringIwSt11char_traitsIwESaIwEEC1EmwRKS3_ W
_ZNSt7__cxx1112basic_stringIwSt11char_traitsIwESaIwEEC1Ev W
_ZNSt7__cxx1112basic_stringIwSt11char_traitsIwESaIwEEC1IN9__gnu_cxx17__normal_iteratorIPwS4_EEvEET_SA_RKS3_ W
_ZNSt7__cxx1112basic_stringIwSt11char_traitsIwESaIwEEC1IPKwvEET_S8_RKS3_ W
_ZNSt7__cxx1112basic_stringIwSt11char_traitsIwESaIwEEC1IPwvEET_S7_RKS3_ W
_ZNSt7__cxx1112basic_stringIwSt11char_traitsIwESaIwEEC2EOS4_ W
_ZNSt7__cxx1112basic_stringIwSt11char_traitsIwESaIwEEC2EOS4_RKS3_ W
_ZNSt7__cxx1112basic_stringIwSt11char_traitsIwESaIwEEC2EPKwRKS3_ W
_ZNSt7__cxx1112basic_stringIwSt11char_traitsIwESaIwEEC2EPKwmRKS3_ W
_ZNSt7__cxx1112basic_stringIwSt11char_traitsIwESaIwEEC2ERKS3_ W
_ZNSt7__cxx1112basic_stringIwSt11char_traitsIwESaIwEEC2ERKS4_ W
_ZNSt7__cxx1112basic_stringIwSt11char_traitsIwESaIwEEC2ERKS4_RKS3_ W
_ZNSt7__cxx1112basic_stringIwSt11char_traitsIwESaIwEEC2ERKS4_mRKS3_ W
_ZNSt7__cxx1112basic_stringIwSt11char_traitsIwESaIwEEC2ERKS4_mm W
_ZNSt7__cxx1112basic_stringIwSt11char_traitsIwESaIwEEC2ERKS4_mmRKS3_ W
_ZNSt7__cxx1112basic_stringIwSt11char_traitsIwESaIwEEC2ESt16initializer_listIwERKS3_ W
_ZNSt7__cxx1112basic_stringIwSt11char_traitsIwESaIwEEC2EmwRKS3_ W
_ZNSt7__cxx1112basic_stringIwSt11char_traitsIwESaIwEEC2Ev W
_ZNSt7__cxx1112basic_stringIwSt11char_traitsIwESaIwEEC2IN9__gnu_cxx17__normal_iteratorIPwS4_EEvEET_SA_RKS3_ W
_ZNSt7__cxx1112basic_stringIwSt11char_traitsIwESaIwEEC2IPKwvEET_S8_RKS3_ W
_ZNSt7__cxx1112basic_stringIwSt11char_traitsIwESaIwEEC2IPwvEET_S7_RKS3_ W
_ZNSt7__cxx1112basic_stringIwSt11char_traitsIwESaIwEED1Ev W
_ZNSt7__cxx1112basic_stringIwSt11char_traitsIwESaIwEED2Ev W
_ZNSt7__cxx1112basic_stringIwSt11char_traitsIwESaIwEEaSEOS4_ W
_ZNSt7__cxx1112basic_stringIwSt11char_traitsIwESaIwEEaSEPKw W
_ZNSt7__cxx1112basic_stringIwSt11char_traitsIwESaIwEEaSERKS4_ W
_ZNSt7__cxx1112basic_stringIwSt11char_traitsIwESaIwEEaSESt16initializer_listIwE W
_ZNSt7__cxx1112basic_stringIwSt11char_traitsIwESaIwEEaSEw W
_ZNSt7__cxx1112basic_stringIwSt11char_traitsIwESaIwEEixEm W
_ZNSt7__cxx1112basic_stringIwSt11char_traitsIwESaIwEEpLEPKw W
_ZNSt7__cxx1112basic_stringIwSt11char_traitsIwESaIwEEpLERKS4_ W
_ZNSt7__cxx1112basic_stringIwSt11char_traitsIwESaIwEEpLESt16initializer_listIwE W
_ZNSt7__cxx1112basic_stringIwSt11char_traitsIwESaIwEEpLEw W
_ZNSt7__cxx1114collate_bynameIcEC1EPKcm W
_ZNSt7__cxx1114collate_bynameIcEC1ERKNS_12basic_stringIcSt11char_traitsIcESaIcEEEm W
_ZNSt7__cxx1114collate_bynameIcEC2EPKcm W
_ZNSt7__cxx1114collate_bynameIcEC2ERKNS_12basic_stringIcSt11char_traitsIcESaIcEEEm W
_ZNSt7__cxx1114collate_bynameIcED0Ev W
_ZNSt7__cxx1114collate_bynameIcED1Ev W
_ZNSt7__cxx1114collate_bynameIcED2Ev W
_ZNSt7__cxx1114collate_bynameIwEC1EPKcm W
_ZNSt7__cxx1114collate_bynameIwEC1ERKNS_12basic_stringIcSt11char_traitsIcESaIcEEEm W
_ZNSt7__cxx1114collate_bynameIwEC2EPKcm W
_ZNSt7__cxx1114collate_bynameIwEC2ERKNS_12basic_stringIcSt11char_traitsIcESaIcEEEm W
_ZNSt7__cxx1114collate_bynameIwED0Ev W
_ZNSt7__cxx1114collate_bynameIwED1Ev W
_ZNSt7__cxx1114collate_bynameIwED2Ev W
_ZNSt7__cxx1115basic_stringbufIcSt11char_traitsIcESaIcEE14__xfer_bufptrsC1ERKS4_PS4_ W
_ZNSt7__cxx1115basic_stringbufIcSt11char_traitsIcESaIcEE14__xfer_bufptrsC2ERKS4_PS4_ W
_ZNSt7__cxx1115basic_stringbufIcSt11char_traitsIcESaIcEE14__xfer_bufptrsD1Ev W
_ZNSt7__cxx1115basic_stringbufIcSt11char_traitsIcESaIcEE14__xfer_bufptrsD2Ev W
_ZNSt7__cxx1115basic_stringbufIcSt11char_traitsIcESaIcEE15_M_update_egptrEv W
_ZNSt7__cxx1115basic_stringbufIcSt11char_traitsIcESaIcEE17_M_stringbuf_initESt13_Ios_Openmode W
_ZNSt7__cxx1115basic_stringbufIcSt11char_traitsIcESaIcEE3strERKNS_12basic_stringIcS2_S3_EE W
_ZNSt7__cxx1115basic_stringbufIcSt11char_traitsIcESaIcEE4swapERS4_ W
_ZNSt7__cxx1115basic_stringbufIcSt11char_traitsIcESaIcEE6setbufEPcl W
_ZNSt7__cxx1115basic_stringbufIcSt11char_traitsIcESaIcEE7_M_syncEPcmm W
_ZNSt7__cxx1115basic_stringbufIcSt11char_traitsIcESaIcEE7seekoffElSt12_Ios_SeekdirSt13_Ios_Openmode W
_ZNSt7__cxx1115basic_stringbufIcSt11char_traitsIcESaIcEE7seekposESt4fposI11__mbstate_tESt13_Ios_Openmode W
_ZNSt7__cxx1115basic_stringbufIcSt11char_traitsIcESaIcEE8_M_pbumpEPcS5_l W
_ZNSt7__cxx1115basic_stringbufIcSt11char_traitsIcESaIcEE8overflowEi W
_ZNSt7__cxx1115basic_stringbufIcSt11char_traitsIcESaIcEE9pbackfailEi W
_ZNSt7__cxx1115basic_stringbufIcSt11char_traitsIcESaIcEE9showmanycEv W
_ZNSt7__cxx1115basic_stringbufIcSt11char_traitsIcESaIcEE9underflowEv W
_ZNSt7__cxx1115basic_stringbufIcSt11char_traitsIcESaIcEEC1EOS4_ W
_ZNSt7__cxx1115basic_stringbufIcSt11char_traitsIcESaIcEEC1EOS4_ONS4_14__xfer_bufptrsE W
_ZNSt7__cxx1115basic_stringbufIcSt11char_traitsIcESaIcEEC1ERKNS_12basic_stringIcS2_S3_EESt13_Ios_Openmode W
_ZNSt7__cxx1115basic_stringbufIcSt11char_traitsIcESaIcEEC1ESt13_Ios_Openmode W
_ZNSt7__cxx1115basic_stringbufIcSt11char_traitsIcESaIcEEC1Ev W
_ZNSt7__cxx1115basic_stringbufIcSt11char_traitsIcESaIcEEC2EOS4_ W
_ZNSt7__cxx1115basic_stringbufIcSt11char_traitsIcESaIcEEC2EOS4_ONS4_14__xfer_bufptrsE W
_ZNSt7__cxx1115basic_stringbufIcSt11char_traitsIcESaIcEEC2ERKNS_12basic_stringIcS2_S3_EESt13_Ios_Openmode W
_ZNSt7__cxx1115basic_stringbufIcSt11char_traitsIcESaIcEEC2ESt13_Ios_Openmode W
_ZNSt7__cxx1115basic_stringbufIcSt11char_traitsIcESaIcEEC2Ev W
_ZNSt7__cxx1115basic_stringbufIcSt11char_traitsIcESaIcEED0Ev W
_ZNSt7__cxx1115basic_stringbufIcSt11char_traitsIcESaIcEED1Ev W
_ZNSt7__cxx1115basic_stringbufIcSt11char_traitsIcESaIcEED2Ev W
_ZNSt7__cxx1115basic_stringbufIcSt11char_traitsIcESaIcEEaSEOS4_ W
_ZNSt7__cxx1115basic_stringbufIwSt11char_traitsIwESaIwEE14__xfer_bufptrsC1ERKS4_PS4_ W
_ZNSt7__cxx1115basic_stringbufIwSt11char_traitsIwESaIwEE14__xfer_bufptrsC2ERKS4_PS4_ W
_ZNSt7__cxx1115basic_stringbufIwSt11char_traitsIwESaIwEE14__xfer_bufptrsD1Ev W
_ZNSt7__cxx1115basic_stringbufIwSt11char_traitsIwESaIwEE14__xfer_bufptrsD2Ev W
_ZNSt7__cxx1115basic_stringbufIwSt11char_traitsIwESaIwEE15_M_update_egptrEv W
_ZNSt7__cxx1115basic_stringbufIwSt11char_traitsIwESaIwEE17_M_stringbuf_initESt13_Ios_Openmode W
_ZNSt7__cxx1115basic_stringbufIwSt11char_traitsIwESaIwEE3strERKNS_12basic_stringIwS2_S3_EE W
_ZNSt7__cxx1115basic_stringbufIwSt11char_traitsIwESaIwEE4swapERS4_ W
_ZNSt7__cxx1115basic_stringbufIwSt11char_traitsIwESaIwEE6setbufEPwl W
_ZNSt7__cxx1115basic_stringbufIwSt11char_traitsIwESaIwEE7_M_syncEPwmm W
_ZNSt7__cxx1115basic_stringbufIwSt11char_traitsIwESaIwEE7seekoffElSt12_Ios_SeekdirSt13_Ios_Openmode W
_ZNSt7__cxx1115basic_stringbufIwSt11char_traitsIwESaIwEE7seekposESt4fposI11__mbstate_tESt13_Ios_Openmode W
_ZNSt7__cxx1115basic_stringbufIwSt11char_traitsIwESaIwEE8_M_pbumpEPwS5_l W
_ZNSt7__cxx1115basic_stringbufIwSt11char_traitsIwESaIwEE8overflowEj W
_ZNSt7__cxx1115basic_stringbufIwSt11char_traitsIwESaIwEE9pbackfailEj W
_ZNSt7__cxx1115basic_stringbufIwSt11char_traitsIwESaIwEE9showmanycEv W
_ZNSt7__cxx1115basic_stringbufIwSt11char_traitsIwESaIwEE9underflowEv W
_ZNSt7__cxx1115basic_stringbufIwSt11char_traitsIwESaIwEEC1EOS4_ W
_ZNSt7__cxx1115basic_stringbufIwSt11char_traitsIwESaIwEEC1EOS4_ONS4_14__xfer_bufptrsE W
_ZNSt7__cxx1115basic_stringbufIwSt11char_traitsIwESaIwEEC1ERKNS_12basic_stringIwS2_S3_EESt13_Ios_Openmode W
_ZNSt7__cxx1115basic_stringbufIwSt11char_traitsIwESaIwEEC1ESt13_Ios_Openmode W
_ZNSt7__cxx1115basic_stringbufIwSt11char_traitsIwESaIwEEC1Ev W
_ZNSt7__cxx1115basic_stringbufIwSt11char_traitsIwESaIwEEC2EOS4_ W
_ZNSt7__cxx1115basic_stringbufIwSt11char_traitsIwESaIwEEC2EOS4_ONS4_14__xfer_bufptrsE W
_ZNSt7__cxx1115basic_stringbufIwSt11char_traitsIwESaIwEEC2ERKNS_12basic_stringIwS2_S3_EESt13_Ios_Openmode W
_ZNSt7__cxx1115basic_stringbufIwSt11char_traitsIwESaIwEEC2ESt13_Ios_Openmode W
_ZNSt7__cxx1115basic_stringbufIwSt11char_traitsIwESaIwEEC2Ev W
_ZNSt7__cxx1115basic_stringbufIwSt11char_traitsIwESaIwEED0Ev W
_ZNSt7__cxx1115basic_stringbufIwSt11char_traitsIwESaIwEED1Ev W
_ZNSt7__cxx1115basic_stringbufIwSt11char_traitsIwESaIwEED2Ev W
_ZNSt7__cxx1115basic_stringbufIwSt11char_traitsIwESaIwEEaSEOS4_ W
_ZNSt7__cxx1115messages_bynameIcEC1EPKcm W
_ZNSt7__cxx1115messages_bynameIcEC1ERKNS_12basic_stringIcSt11char_traitsIcESaIcEEEm W
_ZNSt7__cxx1115messages_bynameIcEC2EPKcm W
_ZNSt7__cxx1115messages_bynameIcEC2ERKNS_12basic_stringIcSt11char_traitsIcESaIcEEEm W
_ZNSt7__cxx1115messages_bynameIcED0Ev W
_ZNSt7__cxx1115messages_bynameIcED1Ev W
_ZNSt7__cxx1115messages_bynameIcED2Ev W
_ZNSt7__cxx1115messages_bynameIwEC1EPKcm W
_ZNSt7__cxx1115messages_bynameIwEC1ERKNS_12basic_stringIcSt11char_traitsIcESaIcEEEm W
_ZNSt7__cxx1115messages_bynameIwEC2EPKcm W
_ZNSt7__cxx1115messages_bynameIwEC2ERKNS_12basic_stringIcSt11char_traitsIcESaIcEEEm W
_ZNSt7__cxx1115messages_bynameIwED0Ev W
_ZNSt7__cxx1115messages_bynameIwED1Ev W
_ZNSt7__cxx1115messages_bynameIwED2Ev W
_ZNSt7__cxx1115numpunct_bynameIcEC1EPKcm W
_ZNSt7__cxx1115numpunct_bynameIcEC1ERKNS_12basic_stringIcSt11char_traitsIcESaIcEEEm W
_ZNSt7__cxx1115numpunct_bynameIcEC2EPKcm W
_ZNSt7__cxx1115numpunct_bynameIcEC2ERKNS_12basic_stringIcSt11char_traitsIcESaIcEEEm W
_ZNSt7__cxx1115numpunct_bynameIcED0Ev W
_ZNSt7__cxx1115numpunct_bynameIcED1Ev W
_ZNSt7__cxx1115numpunct_bynameIcED2Ev W
_ZNSt7__cxx1115numpunct_bynameIwEC1EPKcm W
_ZNSt7__cxx1115numpunct_bynameIwEC1ERKNS_12basic_stringIcSt11char_traitsIcESaIcEEEm W
_ZNSt7__cxx1115numpunct_bynameIwEC2EPKcm W
_ZNSt7__cxx1115numpunct_bynameIwEC2ERKNS_12basic_stringIcSt11char_traitsIcESaIcEEEm W
_ZNSt7__cxx1115numpunct_bynameIwED0Ev W
_ZNSt7__cxx1115numpunct_bynameIwED1Ev W
_ZNSt7__cxx1115numpunct_bynameIwED2Ev W
_ZNSt7__cxx1115time_get_bynameIcSt19istreambuf_iteratorIcSt11char_traitsIcEEEC1EPKcm W
_ZNSt7__cxx1115time_get_bynameIcSt19istreambuf_iteratorIcSt11char_traitsIcEEEC1ERKNS_12basic_stringIcS3_SaIcEEEm W
_ZNSt7__cxx1115time_get_bynameIcSt19istreambuf_iteratorIcSt11char_traitsIcEEEC2EPKcm W
_ZNSt7__cxx1115time_get_bynameIcSt19istreambuf_iteratorIcSt11char_traitsIcEEEC2ERKNS_12basic_stringIcS3_SaIcEEEm W
_ZNSt7__cxx1115time_get_bynameIcSt19istreambuf_iteratorIcSt11char_traitsIcEEED0Ev W
_ZNSt7__cxx1115time_get_bynameIcSt19istreambuf_iteratorIcSt11char_traitsIcEEED1Ev W
_ZNSt7__cxx1115time_get_bynameIcSt19istreambuf_iteratorIcSt11char_traitsIcEEED2Ev W
_ZNSt7__cxx1115time_get_bynameIwSt19istreambuf_iteratorIwSt11char_traitsIwEEEC1EPKcm W
_ZNSt7__cxx1115time_get_bynameIwSt19istreambuf_iteratorIwSt11char_traitsIwEEEC1ERKNS_12basic_stringIcS2_IcESaIcEEEm W
_ZNSt7__cxx1115time_get_bynameIwSt19istreambuf_iteratorIwSt11char_traitsIwEEEC2EPKcm W
_ZNSt7__cxx1115time_get_bynameIwSt19istreambuf_iteratorIwSt11char_traitsIwEEEC2ERKNS_12basic_stringIcS2_IcESaIcEEEm W
_ZNSt7__cxx1115time_get_bynameIwSt19istreambuf_iteratorIwSt11char_traitsIwEEED0Ev W
_ZNSt7__cxx1115time_get_bynameIwSt19istreambuf_iteratorIwSt11char_traitsIwEEED1Ev W
_ZNSt7__cxx1115time_get_bynameIwSt19istreambuf_iteratorIwSt11char_traitsIwEEED2Ev W
_ZNSt7__cxx1117moneypunct_bynameIcLb0EE4intlE u
_ZNSt7__cxx1117moneypunct_bynameIcLb0EEC1EPKcm W
_ZNSt7__cxx1117moneypunct_bynameIcLb0EEC1ERKNS_12basic_stringIcSt11char_traitsIcESaIcEEEm W
_ZNSt7__cxx1117moneypunct_bynameIcLb0EEC2EPKcm W
_ZNSt7__cxx1117moneypunct_bynameIcLb0EEC2ERKNS_12basic_stringIcSt11char_traitsIcESaIcEEEm W
_ZNSt7__cxx1117moneypunct_bynameIcLb0EED0Ev W
_ZNSt7__cxx1117moneypunct_bynameIcLb0EED1Ev W
_ZNSt7__cxx1117moneypunct_bynameIcLb0EED2Ev W
_ZNSt7__cxx1117moneypunct_bynameIcLb1EE4intlE u
_ZNSt7__cxx1117moneypunct_bynameIcLb1EEC1EPKcm W
_ZNSt7__cxx1117moneypunct_bynameIcLb1EEC1ERKNS_12basic_stringIcSt11char_traitsIcESaIcEEEm W
_ZNSt7__cxx1117moneypunct_bynameIcLb1EEC2EPKcm W
_ZNSt7__cxx1117moneypunct_bynameIcLb1EEC2ERKNS_12basic_stringIcSt11char_traitsIcESaIcEEEm W
_ZNSt7__cxx1117moneypunct_bynameIcLb1EED0Ev W
_ZNSt7__cxx1117moneypunct_bynameIcLb1EED1Ev W
_ZNSt7__cxx1117moneypunct_bynameIcLb1EED2Ev W
_ZNSt7__cxx1117moneypunct_bynameIwLb0EE4intlE u
_ZNSt7__cxx1117moneypunct_bynameIwLb0EEC1EPKcm W
_ZNSt7__cxx1117moneypunct_bynameIwLb0EEC1ERKNS_12basic_stringIcSt11char_traitsIcESaIcEEEm W
_ZNSt7__cxx1117moneypunct_bynameIwLb0EEC2EPKcm W
_ZNSt7__cxx1117moneypunct_bynameIwLb0EEC2ERKNS_12basic_stringIcSt11char_traitsIcESaIcEEEm W
_ZNSt7__cxx1117moneypunct_bynameIwLb0EED0Ev W
_ZNSt7__cxx1117moneypunct_bynameIwLb0EED1Ev W
_ZNSt7__cxx1117moneypunct_bynameIwLb0EED2Ev W
_ZNSt7__cxx1117moneypunct_bynameIwLb1EE4intlE u
_ZNSt7__cxx1117moneypunct_bynameIwLb1EEC1EPKcm W
_ZNSt7__cxx1117moneypunct_bynameIwLb1EEC1ERKNS_12basic_stringIcSt11char_traitsIcESaIcEEEm W
_ZNSt7__cxx1117moneypunct_bynameIwLb1EEC2EPKcm W
_ZNSt7__cxx1117moneypunct_bynameIwLb1EEC2ERKNS_12basic_stringIcSt11char_traitsIcESaIcEEEm W
_ZNSt7__cxx1117moneypunct_bynameIwLb1EED0Ev W
_ZNSt7__cxx1117moneypunct_bynameIwLb1EED1Ev W
_ZNSt7__cxx1117moneypunct_bynameIwLb1EED2Ev W
_ZNSt7__cxx1118basic_stringstreamIcSt11char_traitsIcESaIcEE3strERKNS_12basic_stringIcS2_S3_EE W
_ZNSt7__cxx1118basic_stringstreamIcSt11char_traitsIcESaIcEE4swapERS4_ W
_ZNSt7__cxx1118basic_stringstreamIcSt11char_traitsIcESaIcEEC1EOS4_ W
_ZNSt7__cxx1118basic_stringstreamIcSt11char_traitsIcESaIcEEC1ERKNS_12basic_stringIcS2_S3_EESt13_Ios_Openmode W
_ZNSt7__cxx1118basic_stringstreamIcSt11char_traitsIcESaIcEEC1ESt13_Ios_Openmode W
_ZNSt7__cxx1118basic_stringstreamIcSt11char_traitsIcESaIcEEC1Ev W
_ZNSt7__cxx1118basic_stringstreamIcSt11char_traitsIcESaIcEEC2EOS4_ W
_ZNSt7__cxx1118basic_stringstreamIcSt11char_traitsIcESaIcEEC2ERKNS_12basic_stringIcS2_S3_EESt13_Ios_Openmode W
_ZNSt7__cxx1118basic_stringstreamIcSt11char_traitsIcESaIcEEC2ESt13_Ios_Openmode W
_ZNSt7__cxx1118basic_stringstreamIcSt11char_traitsIcESaIcEEC2Ev W
_ZNSt7__cxx1118basic_stringstreamIcSt11char_traitsIcESaIcEED0Ev W
_ZNSt7__cxx1118basic_stringstreamIcSt11char_traitsIcESaIcEED1Ev W
_ZNSt7__cxx1118basic_stringstreamIcSt11char_traitsIcESaIcEED2Ev W
_ZNSt7__cxx1118basic_stringstreamIcSt11char_traitsIcESaIcEEaSEOS4_ W
_ZNSt7__cxx1118basic_stringstreamIwSt11char_traitsIwESaIwEE3strERKNS_12basic_stringIwS2_S3_EE W
_ZNSt7__cxx1118basic_stringstreamIwSt11char_traitsIwESaIwEE4swapERS4_ W
_ZNSt7__cxx1118basic_stringstreamIwSt11char_traitsIwESaIwEEC1EOS4_ W
_ZNSt7__cxx1118basic_stringstreamIwSt11char_traitsIwESaIwEEC1ERKNS_12basic_stringIwS2_S3_EESt13_Ios_Openmode W
_ZNSt7__cxx1118basic_stringstreamIwSt11char_traitsIwESaIwEEC1ESt13_Ios_Openmode W
_ZNSt7__cxx1118basic_stringstreamIwSt11char_traitsIwESaIwEEC1Ev W
_ZNSt7__cxx1118basic_stringstreamIwSt11char_traitsIwESaIwEEC2EOS4_ W
_ZNSt7__cxx1118basic_stringstreamIwSt11char_traitsIwESaIwEEC2ERKNS_12basic_stringIwS2_S3_EESt13_Ios_Openmode W
_ZNSt7__cxx1118basic_stringstreamIwSt11char_traitsIwESaIwEEC2ESt13_Ios_Openmode W
_ZNSt7__cxx1118basic_stringstreamIwSt11char_traitsIwESaIwEEC2Ev W
_ZNSt7__cxx1118basic_stringstreamIwSt11char_traitsIwESaIwEED0Ev W
_ZNSt7__cxx1118basic_stringstreamIwSt11char_traitsIwESaIwEED1Ev W
_ZNSt7__cxx1118basic_stringstreamIwSt11char_traitsIwESaIwEED2Ev W
_ZNSt7__cxx1118basic_stringstreamIwSt11char_traitsIwESaIwEEaSEOS4_ W
_ZNSt7__cxx1119basic_istringstreamIcSt11char_traitsIcESaIcEE3strERKNS_12basic_stringIcS2_S3_EE W
_ZNSt7__cxx1119basic_istringstreamIcSt11char_traitsIcESaIcEE4swapERS4_ W
_ZNSt7__cxx1119basic_istringstreamIcSt11char_traitsIcESaIcEEC1EOS4_ W
_ZNSt7__cxx1119basic_istringstreamIcSt11char_traitsIcESaIcEEC1ERKNS_12basic_stringIcS2_S3_EESt13_Ios_Openmode W
_ZNSt7__cxx1119basic_istringstreamIcSt11char_traitsIcESaIcEEC1ESt13_Ios_Openmode W
_ZNSt7__cxx1119basic_istringstreamIcSt11char_traitsIcESaIcEEC1Ev W
_ZNSt7__cxx1119basic_istringstreamIcSt11char_traitsIcESaIcEEC2EOS4_ W
_ZNSt7__cxx1119basic_istringstreamIcSt11char_traitsIcESaIcEEC2ERKNS_12basic_stringIcS2_S3_EESt13_Ios_Openmode W
_ZNSt7__cxx1119basic_istringstreamIcSt11char_traitsIcESaIcEEC2ESt13_Ios_Openmode W
_ZNSt7__cxx1119basic_istringstreamIcSt11char_traitsIcESaIcEEC2Ev W
_ZNSt7__cxx1119basic_istringstreamIcSt11char_traitsIcESaIcEED0Ev W
_ZNSt7__cxx1119basic_istringstreamIcSt11char_traitsIcESaIcEED1Ev W
_ZNSt7__cxx1119basic_istringstreamIcSt11char_traitsIcESaIcEED2Ev W
_ZNSt7__cxx1119basic_istringstreamIcSt11char_traitsIcESaIcEEaSEOS4_ W
_ZNSt7__cxx1119basic_istringstreamIwSt11char_traitsIwESaIwEE3strERKNS_12basic_stringIwS2_S3_EE W
_ZNSt7__cxx1119basic_istringstreamIwSt11char_traitsIwESaIwEE4swapERS4_ W
_ZNSt7__cxx1119basic_istringstreamIwSt11char_traitsIwESaIwEEC1EOS4_ W
_ZNSt7__cxx1119basic_istringstreamIwSt11char_traitsIwESaIwEEC1ERKNS_12basic_stringIwS2_S3_EESt13_Ios_Openmode W
_ZNSt7__cxx1119basic_istringstreamIwSt11char_traitsIwESaIwEEC1ESt13_Ios_Openmode W
_ZNSt7__cxx1119basic_istringstreamIwSt11char_traitsIwESaIwEEC1Ev W
_ZNSt7__cxx1119basic_istringstreamIwSt11char_traitsIwESaIwEEC2EOS4_ W
_ZNSt7__cxx1119basic_istringstreamIwSt11char_traitsIwESaIwEEC2ERKNS_12basic_stringIwS2_S3_EESt13_Ios_Openmode W
_ZNSt7__cxx1119basic_istringstreamIwSt11char_traitsIwESaIwEEC2ESt13_Ios_Openmode W
_ZNSt7__cxx1119basic_istringstreamIwSt11char_traitsIwESaIwEEC2Ev W
_ZNSt7__cxx1119basic_istringstreamIwSt11char_traitsIwESaIwEED0Ev W
_ZNSt7__cxx1119basic_istringstreamIwSt11char_traitsIwESaIwEED1Ev W
_ZNSt7__cxx1119basic_istringstreamIwSt11char_traitsIwESaIwEED2Ev W
_ZNSt7__cxx1119basic_istringstreamIwSt11char_traitsIwESaIwEEaSEOS4_ W
_ZNSt7__cxx1119basic_ostringstreamIcSt11char_traitsIcESaIcEE3strERKNS_12basic_stringIcS2_S3_EE W
_ZNSt7__cxx1119basic_ostringstreamIcSt11char_traitsIcESaIcEE4swapERS4_ W
_ZNSt7__cxx1119basic_ostringstreamIcSt11char_traitsIcESaIcEEC1EOS4_ W
_ZNSt7__cxx1119basic_ostringstreamIcSt11char_traitsIcESaIcEEC1ERKNS_12basic_stringIcS2_S3_EESt13_Ios_Openmode W
_ZNSt7__cxx1119basic_ostringstreamIcSt11char_traitsIcESaIcEEC1ESt13_Ios_Openmode W
_ZNSt7__cxx1119basic_ostringstreamIcSt11char_traitsIcESaIcEEC1Ev W
_ZNSt7__cxx1119basic_ostringstreamIcSt11char_traitsIcESaIcEEC2EOS4_ W
_ZNSt7__cxx1119basic_ostringstreamIcSt11char_traitsIcESaIcEEC2ERKNS_12basic_stringIcS2_S3_EESt13_Ios_Openmode W
_ZNSt7__cxx1119basic_ostringstreamIcSt11char_traitsIcESaIcEEC2ESt13_Ios_Openmode W
_ZNSt7__cxx1119basic_ostringstreamIcSt11char_traitsIcESaIcEEC2Ev W
_ZNSt7__cxx1119basic_ostringstreamIcSt11char_traitsIcESaIcEED0Ev W
_ZNSt7__cxx1119basic_ostringstreamIcSt11char_traitsIcESaIcEED1Ev W
_ZNSt7__cxx1119basic_ostringstreamIcSt11char_traitsIcESaIcEED2Ev W
_ZNSt7__cxx1119basic_ostringstreamIcSt11char_traitsIcESaIcEEaSEOS4_ W
_ZNSt7__cxx1119basic_ostringstreamIwSt11char_traitsIwESaIwEE3strERKNS_12basic_stringIwS2_S3_EE W
_ZNSt7__cxx1119basic_ostringstreamIwSt11char_traitsIwESaIwEE4swapERS4_ W
_ZNSt7__cxx1119basic_ostringstreamIwSt11char_traitsIwESaIwEEC1EOS4_ W
_ZNSt7__cxx1119basic_ostringstreamIwSt11char_traitsIwESaIwEEC1ERKNS_12basic_stringIwS2_S3_EESt13_Ios_Openmode W
_ZNSt7__cxx1119basic_ostringstreamIwSt11char_traitsIwESaIwEEC1ESt13_Ios_Openmode W
_ZNSt7__cxx1119basic_ostringstreamIwSt11char_traitsIwESaIwEEC1Ev W
_ZNSt7__cxx1119basic_ostringstreamIwSt11char_traitsIwESaIwEEC2EOS4_ W
_ZNSt7__cxx1119basic_ostringstreamIwSt11char_traitsIwESaIwEEC2ERKNS_12basic_stringIwS2_S3_EESt13_Ios_Openmode W
_ZNSt7__cxx1119basic_ostringstreamIwSt11char_traitsIwESaIwEEC2ESt13_Ios_Openmode W
_ZNSt7__cxx1119basic_ostringstreamIwSt11char_traitsIwESaIwEEC2Ev W
_ZNSt7__cxx1119basic_ostringstreamIwSt11char_traitsIwESaIwEED0Ev W
_ZNSt7__cxx1119basic_ostringstreamIwSt11char_traitsIwESaIwEED1Ev W
_ZNSt7__cxx1119basic_ostringstreamIwSt11char_traitsIwESaIwEED2Ev W
_ZNSt7__cxx1119basic_ostringstreamIwSt11char_traitsIwESaIwEEaSEOS4_ W
_ZNSt7__cxx117collateIcE2idE u
_ZNSt7__cxx117collateIcEC1EP15__locale_structm W
_ZNSt7__cxx117collateIcEC1Em W
_ZNSt7__cxx117collateIcEC2EP15__locale_structm W
_ZNSt7__cxx117collateIcEC2Em W
_ZNSt7__cxx117collateIcED0Ev W
_ZNSt7__cxx117collateIcED1Ev W
_ZNSt7__cxx117collateIcED2Ev W
_ZNSt7__cxx117collateIwE2idE u
_ZNSt7__cxx117collateIwEC1EP15__locale_structm W
_ZNSt7__cxx117collateIwEC1Em W
_ZNSt7__cxx117collateIwEC2EP15__locale_structm W
_ZNSt7__cxx117collateIwEC2Em W
_ZNSt7__cxx117collateIwED0Ev W
_ZNSt7__cxx117collateIwED1Ev W
_ZNSt7__cxx117collateIwED2Ev W
_ZNSt7__cxx118messagesIcE2idE u
_ZNSt7__cxx118messagesIcEC1EP15__locale_structPKcm W
_ZNSt7__cxx118messagesIcEC1Em W
_ZNSt7__cxx118messagesIcEC2EP15__locale_structPKcm W
_ZNSt7__cxx118messagesIcEC2Em W
_ZNSt7__cxx118messagesIcED0Ev W
_ZNSt7__cxx118messagesIcED1Ev W
_ZNSt7__cxx118messagesIcED2Ev W
_ZNSt7__cxx118messagesIwE2idE u
_ZNSt7__cxx118messagesIwEC1EP15__locale_structPKcm W
_ZNSt7__cxx118messagesIwEC1Em W
_ZNSt7__cxx118messagesIwEC2EP15__locale_structPKcm W
_ZNSt7__cxx118messagesIwEC2Em W
_ZNSt7__cxx118messagesIwED0Ev W
_ZNSt7__cxx118messagesIwED1Ev W
_ZNSt7__cxx118messagesIwED2Ev W
_ZNSt7__cxx118numpunctIcE22_M_initialize_numpunctEP15__locale_struct T
_ZNSt7__cxx118numpunctIcE2idE u
_ZNSt7__cxx118numpunctIcEC1EP15__locale_structm W
_ZNSt7__cxx118numpunctIcEC1EPSt16__numpunct_cacheIcEm W
_ZNSt7__cxx118numpunctIcEC1Em W
_ZNSt7__cxx118numpunctIcEC2EP15__locale_structm W
_ZNSt7__cxx118numpunctIcEC2EPSt16__numpunct_cacheIcEm W
_ZNSt7__cxx118numpunctIcEC2Em W
_ZNSt7__cxx118numpunctIcED0Ev T
_ZNSt7__cxx118numpunctIcED1Ev T
_ZNSt7__cxx118numpunctIcED2Ev T
_ZNSt7__cxx118numpunctIwE22_M_initialize_numpunctEP15__locale_struct T
_ZNSt7__cxx118numpunctIwE2idE u
_ZNSt7__cxx118numpunctIwEC1EP15__locale_structm W
_ZNSt7__cxx118numpunctIwEC1EPSt16__numpunct_cacheIwEm W
_ZNSt7__cxx118numpunctIwEC1Em W
_ZNSt7__cxx118numpunctIwEC2EP15__locale_structm W
_ZNSt7__cxx118numpunctIwEC2EPSt16__numpunct_cacheIwEm W
_ZNSt7__cxx118numpunctIwEC2Em W
_ZNSt7__cxx118numpunctIwED0Ev T
_ZNSt7__cxx118numpunctIwED1Ev T
_ZNSt7__cxx118numpunctIwED2Ev T
_ZNSt7__cxx118time_getIcSt19istreambuf_iteratorIcSt11char_traitsIcEEE2idE u
_ZNSt7__cxx118time_getIcSt19istreambuf_iteratorIcSt11char_traitsIcEEEC1Em W
_ZNSt7__cxx118time_getIcSt19istreambuf_iteratorIcSt11char_traitsIcEEEC2Em W
_ZNSt7__cxx118time_getIcSt19istreambuf_iteratorIcSt11char_traitsIcEEED0Ev W
_ZNSt7__cxx118time_getIcSt19istreambuf_iteratorIcSt11char_traitsIcEEED1Ev W
_ZNSt7__cxx118time_getIcSt19istreambuf_iteratorIcSt11char_traitsIcEEED2Ev W
_ZNSt7__cxx118time_getIwSt19istreambuf_iteratorIwSt11char_traitsIwEEE2idE u
_ZNSt7__cxx118time_getIwSt19istreambuf_iteratorIwSt11char_traitsIwEEEC1Em W
_ZNSt7__cxx118time_getIwSt19istreambuf_iteratorIwSt11char_traitsIwEEEC2Em W
_ZNSt7__cxx118time_getIwSt19istreambuf_iteratorIwSt11char_traitsIwEEED0Ev W
_ZNSt7__cxx118time_getIwSt19istreambuf_iteratorIwSt11char_traitsIwEEED1Ev W
_ZNSt7__cxx118time_getIwSt19istreambuf_iteratorIwSt11char_traitsIwEEED2Ev W
_ZNSt7__cxx119money_getIcSt19istreambuf_iteratorIcSt11char_traitsIcEEE2idE u
_ZNSt7__cxx119money_getIcSt19istreambuf_iteratorIcSt11char_traitsIcEEEC1Em W
_ZNSt7__cxx119money_getIcSt19istreambuf_iteratorIcSt11char_traitsIcEEEC2Em W
_ZNSt7__cxx119money_getIcSt19istreambuf_iteratorIcSt11char_traitsIcEEED0Ev W
_ZNSt7__cxx119money_getIcSt19istreambuf_iteratorIcSt11char_traitsIcEEED1Ev W
_ZNSt7__cxx119money_getIcSt19istreambuf_iteratorIcSt11char_traitsIcEEED2Ev W
_ZNSt7__cxx119money_getIwSt19istreambuf_iteratorIwSt11char_traitsIwEEE2idE u
_ZNSt7__cxx119money_getIwSt19istreambuf_iteratorIwSt11char_traitsIwEEEC1Em W
_ZNSt7__cxx119money_getIwSt19istreambuf_iteratorIwSt11char_traitsIwEEEC2Em W
_ZNSt7__cxx119money_getIwSt19istreambuf_iteratorIwSt11char_traitsIwEEED0Ev W
_ZNSt7__cxx119money_getIwSt19istreambuf_iteratorIwSt11char_traitsIwEEED1Ev W
_ZNSt7__cxx119money_getIwSt19istreambuf_iteratorIwSt11char_traitsIwEEED2Ev W
_ZNSt7__cxx119money_putIcSt19ostreambuf_iteratorIcSt11char_traitsIcEEE2idE u
_ZNSt7__cxx119money_putIcSt19ostreambuf_iteratorIcSt11char_traitsIcEEEC1Em W
_ZNSt7__cxx119money_putIcSt19ostreambuf_iteratorIcSt11char_traitsIcEEEC2Em W
_ZNSt7__cxx119money_putIcSt19ostreambuf_iteratorIcSt11char_traitsIcEEED0Ev W
_ZNSt7__cxx119money_putIcSt19ostreambuf_iteratorIcSt11char_traitsIcEEED1Ev W
_ZNSt7__cxx119money_putIcSt19ostreambuf_iteratorIcSt11char_traitsIcEEED2Ev W
_ZNSt7__cxx119money_putIwSt19ostreambuf_iteratorIwSt11char_traitsIwEEE2idE u
_ZNSt7__cxx119money_putIwSt19ostreambuf_iteratorIwSt11char_traitsIwEEEC1Em W
_ZNSt7__cxx119money_putIwSt19ostreambuf_iteratorIwSt11char_traitsIwEEEC2Em W
_ZNSt7__cxx119money_putIwSt19ostreambuf_iteratorIwSt11char_traitsIwEEED0Ev W
_ZNSt7__cxx119money_putIwSt19ostreambuf_iteratorIwSt11char_traitsIwEEED1Ev W
_ZNSt7__cxx119money_putIwSt19ostreambuf_iteratorIwSt11char_traitsIwEEED2Ev W
_ZNSt7codecvtIDiDu11__mbstate_tE2idE B 8
_ZNSt7codecvtIDiDu11__mbstate_tED0Ev T
_ZNSt7codecvtIDiDu11__mbstate_tED1Ev T
_ZNSt7codecvtIDiDu11__mbstate_tED2Ev T
_ZNSt7codecvtIDic11__mbstate_tE2idE B 8
_ZNSt7codecvtIDic11__mbstate_tED0Ev T
_ZNSt7codecvtIDic11__mbstate_tED1Ev T
_ZNSt7codecvtIDic11__mbstate_tED2Ev T
_ZNSt7codecvtIDsDu11__mbstate_tE2idE B 8
_ZNSt7codecvtIDsDu11__mbstate_tED0Ev T
_ZNSt7codecvtIDsDu11__mbstate_tED1Ev T
_ZNSt7codecvtIDsDu11__mbstate_tED2Ev T
_ZNSt7codecvtIDsc11__mbstate_tE2idE B 8
_ZNSt7codecvtIDsc11__mbstate_tED0Ev T
_ZNSt7codecvtIDsc11__mbstate_tED1Ev T
_ZNSt7codecvtIDsc11__mbstate_tED2Ev T
_ZNSt7codecvtIcc11__mbstate_tE2idE B 8
_ZNSt7codecvtIcc11__mbstate_tEC1EP15__locale_structm T
_ZNSt7codecvtIcc11__mbstate_tEC1Em T
_ZNSt7codecvtIcc11__mbstate_tEC2EP15__locale_structm T
_ZNSt7codecvtIcc11__mbstate_tEC2Em T
_ZNSt7codecvtIcc11__mbstate_tED0Ev T
_ZNSt7codecvtIcc11__mbstate_tED1Ev T
_ZNSt7codecvtIcc11__mbstate_tED2Ev T
_ZNSt7codecvtIwc11__mbstate_tE2idE B 8
_ZNSt7codecvtIwc11__mbstate_tEC1EP15__locale_structm T
_ZNSt7codecvtIwc11__mbstate_tEC1Em T
_ZNSt7codecvtIwc11__mbstate_tEC2EP15__locale_structm T
_ZNSt7codecvtIwc11__mbstate_tEC2Em T
_ZNSt7codecvtIwc11__mbstate_tED0Ev T
_ZNSt7codecvtIwc11__mbstate_tED1Ev T
_ZNSt7codecvtIwc11__mbstate_tED2Ev T
_ZNSt7collateIcE2idE u
_ZNSt7collateIcEC1EP15__locale_structm W
_ZNSt7collateIcEC1Em W
_ZNSt7collateIcEC2EP15__locale_structm W
_ZNSt7collateIcEC2Em W
_ZNSt7collateIcED0Ev W
_ZNSt7collateIcED1Ev W
_ZNSt7collateIcED2Ev W
_ZNSt7collateIwE2idE u
_ZNSt7collateIwEC1EP15__locale_structm W
_ZNSt7collateIwEC1Em W
_ZNSt7collateIwEC2EP15__locale_structm W
_ZNSt7collateIwEC2Em W
_ZNSt7collateIwED0Ev W
_ZNSt7collateIwED1Ev W
_ZNSt7collateIwED2Ev W
_ZNSt7num_getIcSt19istreambuf_iteratorIcSt11char_traitsIcEEE2idE u
_ZNSt7num_getIcSt19istreambuf_iteratorIcSt11char_traitsIcEEEC1Em W
_ZNSt7num_getIcSt19istreambuf_iteratorIcSt11char_traitsIcEEEC2Em W
_ZNSt7num_getIcSt19istreambuf_iteratorIcSt11char_traitsIcEEED0Ev W
_ZNSt7num_getIcSt19istreambuf_iteratorIcSt11char_traitsIcEEED1Ev W
_ZNSt7num_getIcSt19istreambuf_iteratorIcSt11char_traitsIcEEED2Ev W
_ZNSt7num_getIwSt19istreambuf_iteratorIwSt11char_traitsIwEEE2idE u
_ZNSt7num_getIwSt19istreambuf_iteratorIwSt11char_traitsIwEEEC1Em W
_ZNSt7num_getIwSt19istreambuf_iteratorIwSt11char_traitsIwEEEC2Em W
_ZNSt7num_getIwSt19istreambuf_iteratorIwSt11char_traitsIwEEED0Ev W
_ZNSt7num_getIwSt19istreambuf_iteratorIwSt11char_traitsIwEEED1Ev W
_ZNSt7num_getIwSt19istreambuf_iteratorIwSt11char_traitsIwEEED2Ev W
_ZNSt7num_putIcSt19ostreambuf_iteratorIcSt11char_traitsIcEEE2idE u
_ZNSt7num_putIcSt19ostreambuf_iteratorIcSt11char_traitsIcEEEC1Em W
_ZNSt7num_putIcSt19ostreambuf_iteratorIcSt11char_traitsIcEEEC2Em W
_ZNSt7num_putIcSt19ostreambuf_iteratorIcSt11char_traitsIcEEED0Ev W
_ZNSt7num_putIcSt19ostreambuf_iteratorIcSt11char_traitsIcEEED1Ev W
_ZNSt7num_putIcSt19ostreambuf_iteratorIcSt11char_traitsIcEEED2Ev W
_ZNSt7num_putIwSt19ostreambuf_iteratorIwSt11char_traitsIwEEE2idE u
_ZNSt7num_putIwSt19ostreambuf_iteratorIwSt11char_traitsIwEEEC1Em W
_ZNSt7num_putIwSt19ostreambuf_iteratorIwSt11char_traitsIwEEEC2Em W
_ZNSt7num_putIwSt19ostreambuf_iteratorIwSt11char_traitsIwEEED0Ev W
_ZNSt7num_putIwSt19ostreambuf_iteratorIwSt11char_traitsIwEEED1Ev W
_ZNSt7num_putIwSt19ostreambuf_iteratorIwSt11char_traitsIwEEED2Ev W
_ZNSt8Catalogs6_M_addEPKcSt6locale T
_ZNSt8Catalogs8_M_eraseEi T
_ZNSt8CatalogsD1Ev T
_ZNSt8CatalogsD2Ev T
_ZNSt8bad_castD0Ev T
_ZNSt8bad_castD1Ev T
_ZNSt8bad_castD2Ev T
_ZNSt8ios_base10floatfieldE R
_ZNSt8ios_base10scientificE R
_ZNSt8ios_base11adjustfieldE R
_ZNSt8ios_base13_M_grow_wordsEib T
_ZNSt8ios_base15sync_with_stdioEb T
_ZNSt8ios_base17_M_call_callbacksENS_5eventE T
_ZNSt8ios_base17register_callbackEPFvNS_5eventERS_iEi T
_ZNSt8ios_base20_M_dispose_callbacksEv T
_ZNSt8ios_base2inE R
_ZNSt8ios_base3appE R
_ZNSt8ios_base3ateE R
_ZNSt8ios_base3begE R
_ZNSt8ios_base3curE R
_ZNSt8ios_base3decE R
_ZNSt8ios_base3endE R
_ZNSt8ios_base3hexE R
_ZNSt8ios_base3octE R
_ZNSt8ios_base3outE R
_ZNSt8ios_base4Init11_S_refcountE B 4
_ZNSt8ios_base4Init20_S_synced_with_stdioE D 1
_ZNSt8ios_base4InitC1Ev T
_ZNSt8ios_base4InitC2Ev T
_ZNSt8ios_base4InitD1Ev T
_ZNSt8ios_base4InitD2Ev T
_ZNSt8ios_base4leftE R
_ZNSt8ios_base5fixedE R
_ZNSt8ios_base5imbueERKSt6locale T
_ZNSt8ios_base5rightE R
_ZNSt8ios_base5truncE R
_ZNSt8ios_base6badbitE R
_ZNSt8ios_base6binaryE R
_ZNSt8ios_base6eofbitE R
_ZNSt8ios_base6skipwsE R
_ZNSt8ios_base6xallocEv T
_ZNSt8ios_base7_M_initEv T
_ZNSt8ios_base7_M_moveERS_ T
_ZNSt8ios_base7_M_swapERS_ T
_ZNSt8ios_base7failbitE R
_ZNSt8ios_base7failureB5cxx11C1EPKcRKSt10error_code T
_ZNSt8ios_base7failureB5cxx11C1ERKNSt7__cxx1112basic_stringIcSt11char_traitsIcESaIcEEE T
_ZNSt8ios_base7failureB5cxx11C1ERKNSt7__cxx1112basic_stringIcSt11char_traitsIcESaIcEEERKSt10error_code T
_ZNSt8ios_base7failureB5cxx11C2EPKcRKSt10error_code T
_ZNSt8ios_base7failureB5cxx11C2ERKNSt7__cxx1112basic_stringIcSt11char_traitsIcESaIcEEE T
_ZNSt8ios_base7failureB5cxx11C2ERKNSt7__cxx1112basic_stringIcSt11char_traitsIcESaIcEEERKSt10error_code T
_ZNSt8ios_base7failureB5cxx11D0Ev T
_ZNSt8ios_base7failureB5cxx11D1Ev T
_ZNSt8ios_base7failureB5cxx11D2Ev T
_ZNSt8ios_base7failureC1ERKSs T
_ZNSt8ios_base7failureC2ERKSs T
_ZNSt8ios_base7failureD0Ev T
_ZNSt8ios_base7failureD1Ev T
_ZNSt8ios_base7failureD2Ev T
_ZNSt8ios_base7goodbitE R
_ZNSt8ios_base7showposE R
_ZNSt8ios_base7unitbufE R
_ZNSt8ios_base8internalE R
_ZNSt8ios_base8showbaseE R
_ZNSt8ios_base9basefieldE R
_ZNSt8ios_base9boolalphaE R
_ZNSt8ios_base9showpointE R
_ZNSt8ios_base9uppercaseE R
_ZNSt8ios_baseC1Ev T
_ZNSt8ios_baseC2Ev T
_ZNSt8ios_baseD0Ev T
_ZNSt8ios_baseD1Ev T
_ZNSt8ios_baseD2Ev T
_ZNSt8messagesIcE2idE u
_ZNSt8messagesIcEC1EP15__locale_structPKcm W
_ZNSt8messagesIcEC1Em W
_ZNSt8messagesIcEC2EP15__locale_structPKcm W
_ZNSt8messagesIcEC2Em W
_ZNSt8messagesIcED0Ev W
_ZNSt8messagesIcED1Ev W
_ZNSt8messagesIcED2Ev W
_ZNSt8messagesIwE2idE u
_ZNSt8messagesIwEC1EP15__locale_structPKcm W
_ZNSt8messagesIwEC1Em W
_ZNSt8messagesIwEC2EP15__locale_structPKcm W
_ZNSt8messagesIwEC2Em W
_ZNSt8messagesIwED0Ev W
_ZNSt8messagesIwED1Ev W
_ZNSt8messagesIwED2Ev W
_ZNSt8numpunctIcE22_M_initialize_numpunctEP15__locale_struct T
_ZNSt8numpunctIcE2idE u
_ZNSt8numpunctIcEC1EP15__locale_structm W
_ZNSt8numpunctIcEC1EPSt16__numpunct_cacheIcEm W
_ZNSt8numpunctIcEC1Em W
_ZNSt8numpunctIcEC2EP15__locale_structm W
_ZNSt8numpunctIcEC2EPSt16__numpunct_cacheIcEm W
_ZNSt8numpunctIcEC2Em W
_ZNSt8numpunctIcED0Ev T
_ZNSt8numpunctIcED1Ev T
_ZNSt8numpunctIcED2Ev T
_ZNSt8numpunctIwE22_M_initialize_numpunctEP15__locale_struct T
_ZNSt8numpunctIwE2idE u
_ZNSt8numpunctIwEC1EP15__locale_structm W
_ZNSt8numpunctIwEC1EPSt16__numpunct_cacheIwEm W
_ZNSt8numpunctIwEC1Em W
_ZNSt8numpunctIwEC2EP15__locale_structm W
_ZNSt8numpunctIwEC2EPSt16__numpunct_cacheIwEm W
_ZNSt8numpunctIwEC2Em W
_ZNSt8numpunctIwED0Ev T
_ZNSt8numpunctIwED1Ev T
_ZNSt8numpunctIwED2Ev T
_ZNSt8time_getIcSt19istreambuf_iteratorIcSt11char_traitsIcEEE2idE u
_ZNSt8time_getIcSt19istreambuf_iteratorIcSt11char_traitsIcEEEC1Em W
_ZNSt8time_getIcSt19istreambuf_iteratorIcSt11char_traitsIcEEEC2Em W
_ZNSt8time_getIcSt19istreambuf_iteratorIcSt11char_traitsIcEEED0Ev W
_ZNSt8time_getIcSt19istreambuf_iteratorIcSt11char_traitsIcEEED1Ev W
_ZNSt8time_getIcSt19istreambuf_iteratorIcSt11char_traitsIcEEED2Ev W
_ZNSt8time_getIwSt19istreambuf_iteratorIwSt11char_traitsIwEEE2idE u
_ZNSt8time_getIwSt19istreambuf_iteratorIwSt11char_traitsIwEEEC1Em W
_ZNSt8time_getIwSt19istreambuf_iteratorIwSt11char_traitsIwEEEC2Em W
_ZNSt8time_getIwSt19istreambuf_iteratorIwSt11char_traitsIwEEED0Ev W
_ZNSt8time_getIwSt19istreambuf_iteratorIwSt11char_traitsIwEEED1Ev W
_ZNSt8time_getIwSt19istreambuf_iteratorIwSt11char_traitsIwEEED2Ev W
_ZNSt8time_putIcSt19ostreambuf_iteratorIcSt11char_traitsIcEEE2idE u
_ZNSt8time_putIcSt19ostreambuf_iteratorIcSt11char_traitsIcEEEC1Em W
_ZNSt8time_putIcSt19ostreambuf_iteratorIcSt11char_traitsIcEEEC2Em W
_ZNSt8time_putIcSt19ostreambuf_iteratorIcSt11char_traitsIcEEED0Ev W
_ZNSt8time_putIcSt19ostreambuf_iteratorIcSt11char_traitsIcEEED1Ev W
_ZNSt8time_putIcSt19ostreambuf_iteratorIcSt11char_traitsIcEEED2Ev W
_ZNSt8time_putIwSt19ostreambuf_iteratorIwSt11char_traitsIwEEE2idE u
_ZNSt8time_putIwSt19ostreambuf_iteratorIwSt11char_traitsIwEEEC1Em W
_ZNSt8time_putIwSt19ostreambuf_iteratorIwSt11char_traitsIwEEEC2Em W
_ZNSt8time_putIwSt19ostreambuf_iteratorIwSt11char_traitsIwEEED0Ev W
_ZNSt8time_putIwSt19ostreambuf_iteratorIwSt11char_traitsIwEEED1Ev W
_ZNSt8time_putIwSt19ostreambuf_iteratorIwSt11char_traitsIwEEED2Ev W
_ZNSt9bad_allocD0Ev T
_ZNSt9bad_allocD1Ev T
_ZNSt9bad_allocD2Ev T
_ZNSt9basic_iosIcSt11char_traitsIcEE10exceptionsESt12_Ios_Iostate W
_ZNSt9basic_iosIcSt11char_traitsIcEE11_M_setstateESt12_Ios_Iostate W
_ZNSt9basic_iosIcSt11char_traitsIcEE15_M_cache_localeERKSt6locale W
_ZNSt9basic_iosIcSt11char_traitsIcEE3tieEPSo W
_ZNSt9basic_iosIcSt11char_traitsIcEE4fillEc W
_ZNSt9basic_iosIcSt11char_traitsIcEE4initEPSt15basic_streambufIcS1_E W
_ZNSt9basic_iosIcSt11char_traitsIcEE4moveEOS2_ W
_ZNSt9basic_iosIcSt11char_traitsIcEE4moveERS2_ W
_ZNSt9basic_iosIcSt11char_traitsIcEE4swapERS2_ W
_ZNSt9basic_iosIcSt11char_traitsIcEE5clearESt12_Ios_Iostate W
_ZNSt9basic_iosIcSt11char_traitsIcEE5imbueERKSt6locale W
_ZNSt9basic_iosIcSt11char_traitsIcEE5rdbufEPSt15basic_streambufIcS1_E W
_ZNSt9basic_iosIcSt11char_traitsIcEE7copyfmtERKS2_ W
_ZNSt9basic_iosIcSt11char_traitsIcEE8setstateESt12_Ios_Iostate W
_ZNSt9basic_iosIcSt11char_traitsIcEE9set_rdbufEPSt15basic_streambufIcS1_E W
_ZNSt9basic_iosIcSt11char_traitsIcEEC1EPSt15basic_streambufIcS1_E W
_ZNSt9basic_iosIcSt11char_traitsIcEEC1Ev W
_ZNSt9basic_iosIcSt11char_traitsIcEEC2EPSt15basic_streambufIcS1_E W
_ZNSt9basic_iosIcSt11char_traitsIcEEC2Ev W
_ZNSt9basic_iosIcSt11char_traitsIcEED0Ev W
_ZNSt9basic_iosIcSt11char_traitsIcEED1Ev W
_ZNSt9basic_iosIcSt11char_traitsIcEED2Ev W
_ZNSt9basic_iosIwSt11char_traitsIwEE10exceptionsESt12_Ios_Iostate W
_ZNSt9basic_iosIwSt11char_traitsIwEE11_M_setstateESt12_Ios_Iostate W
_ZNSt9basic_iosIwSt11char_traitsIwEE15_M_cache_localeERKSt6locale W
_ZNSt9basic_iosIwSt11char_traitsIwEE3tieEPSt13basic_ostreamIwS1_E W
_ZNSt9basic_iosIwSt11char_traitsIwEE4fillEw W
_ZNSt9basic_iosIwSt11char_traitsIwEE4initEPSt15basic_streambufIwS1_E W
_ZNSt9basic_iosIwSt11char_traitsIwEE4moveEOS2_ W
_ZNSt9basic_iosIwSt11char_traitsIwEE4moveERS2_ W
_ZNSt9basic_iosIwSt11char_traitsIwEE4swapERS2_ W
_ZNSt9basic_iosIwSt11char_traitsIwEE5clearESt12_Ios_Iostate W
_ZNSt9basic_iosIwSt11char_traitsIwEE5imbueERKSt6locale W
_ZNSt9basic_iosIwSt11char_traitsIwEE5rdbufEPSt15basic_streambufIwS1_E W
_ZNSt9basic_iosIwSt11char_traitsIwEE7copyfmtERKS2_ W
_ZNSt9basic_iosIwSt11char_traitsIwEE8setstateESt12_Ios_Iostate W
_ZNSt9basic_iosIwSt11char_traitsIwEE9set_rdbufEPSt15basic_streambufIwS1_E W
_ZNSt9basic_iosIwSt11char_traitsIwEEC1EPSt15basic_streambufIwS1_E W
_ZNSt9basic_iosIwSt11char_traitsIwEEC1Ev W
_ZNSt9basic_iosIwSt11char_traitsIwEEC2EPSt15basic_streambufIwS1_E W
_ZNSt9basic_iosIwSt11char_traitsIwEEC2Ev W
_ZNSt9basic_iosIwSt11char_traitsIwEED0Ev W
_ZNSt9basic_iosIwSt11char_traitsIwEED1Ev W
_ZNSt9basic_iosIwSt11char_traitsIwEED2Ev W
_ZNSt9exceptionD0Ev T
_ZNSt9exceptionD1Ev T
_ZNSt9exceptionD2Ev T
_ZNSt9money_getIcSt19istreambuf_iteratorIcSt11char_traitsIcEEE2idE u
_ZNSt9money_getIcSt19istreambuf_iteratorIcSt11char_traitsIcEEEC1Em W
_ZNSt9money_getIcSt19istreambuf_iteratorIcSt11char_traitsIcEEEC2Em W
_ZNSt9money_getIcSt19istreambuf_iteratorIcSt11char_traitsIcEEED0Ev W
_ZNSt9money_getIcSt19istreambuf_iteratorIcSt11char_traitsIcEEED1Ev W
_ZNSt9money_getIcSt19istreambuf_iteratorIcSt11char_traitsIcEEED2Ev W
_ZNSt9money_getIwSt19istreambuf_iteratorIwSt11char_traitsIwEEE2idE u
_ZNSt9money_getIwSt19istreambuf_iteratorIwSt11char_traitsIwEEEC1Em W
_ZNSt9money_getIwSt19istreambuf_iteratorIwSt11char_traitsIwEEEC2Em W
_ZNSt9money_getIwSt19istreambuf_iteratorIwSt11char_traitsIwEEED0Ev W
_ZNSt9money_getIwSt19istreambuf_iteratorIwSt11char_traitsIwEEED1Ev W
_ZNSt9money_getIwSt19istreambuf_iteratorIwSt11char_traitsIwEEED2Ev W
_ZNSt9money_putIcSt19ostreambuf_iteratorIcSt11char_traitsIcEEE2idE u
_ZNSt9money_putIcSt19ostreambuf_iteratorIcSt11char_traitsIcEEEC1Em W
_ZNSt9money_putIcSt19ostreambuf_iteratorIcSt11char_traitsIcEEEC2Em W
_ZNSt9money_putIcSt19ostreambuf_iteratorIcSt11char_traitsIcEEED0Ev W
_ZNSt9money_putIcSt19ostreambuf_iteratorIcSt11char_traitsIcEEED1Ev W
_ZNSt9money_putIcSt19ostreambuf_iteratorIcSt11char_traitsIcEEED2Ev W
_ZNSt9money_putIwSt19ostreambuf_iteratorIwSt11char_traitsIwEEE2idE u
_ZNSt9money_putIwSt19ostreambuf_iteratorIwSt11char_traitsIwEEEC1Em W
_ZNSt9money_putIwSt19ostreambuf_iteratorIwSt11char_traitsIwEEEC2Em W
_ZNSt9money_putIwSt19ostreambuf_iteratorIwSt11char_traitsIwEEED0Ev W
_ZNSt9money_putIwSt19ostreambuf_iteratorIwSt11char_traitsIwEEED1Ev W
_ZNSt9money_putIwSt19ostreambuf_iteratorIwSt11char_traitsIwEEED2Ev W
_ZNSt9type_infoD0Ev T
_ZNSt9type_infoD1Ev T
_ZNSt9type_infoD2Ev T
_ZSt10unexpectedv T
_ZSt12get_catalogsv T
_ZSt13__int_to_charIcmEiPT_T0_PKS0_St13_Ios_Fmtflagsb W
_ZSt13__int_to_charIcyEiPT_T0_PKS0_St13_Ios_Fmtflagsb W
_ZSt13__int_to_charIwmEiPT_T0_PKS0_St13_Ios_Fmtflagsb W
_ZSt13__int_to_charIwyEiPT_T0_PKS0_St13_Ios_Fmtflagsb W
_ZSt13get_terminatev T
_ZSt13set_terminatePFvvE T
_ZSt14__add_groupingIcEPT_S1_S0_PKcmPKS0_S5_ W
_ZSt14__add_groupingIwEPT_S1_S0_PKcmPKS0_S5_ W
_ZSt14__convert_to_vIdEvPKcRT_RSt12_Ios_IostateRKP15__locale_struct T
_ZSt14__convert_to_vIeEvPKcRT_RSt12_Ios_IostateRKP15__locale_struct T
_ZSt14__convert_to_vIfEvPKcRT_RSt12_Ios_IostateRKP15__locale_struct T
_ZSt14get_unexpectedv T
_ZSt14set_unexpectedPFvvE T
_ZSt15get_new_handlerv T
_ZSt15set_new_handlerPFvvE T
_ZSt16__convert_from_vRKP15__locale_structPciPKcz W
_ZSt16__ostream_insertIcSt11char_traitsIcEERSt13basic_ostreamIT_T0_ES6_PKS3_l W
_ZSt16__ostream_insertIwSt11char_traitsIwEERSt13basic_ostreamIT_T0_ES6_PKS3_l W
_ZSt16__throw_bad_castv T
_ZSt17__copy_streambufsIcSt11char_traitsIcEElPSt15basic_streambufIT_T0_ES6_ W
_ZSt17__copy_streambufsIwSt11char_traitsIwEElPSt15basic_streambufIT_T0_ES6_ W
_ZSt17__istream_extractIwSt11char_traitsIwEEvRSt13basic_istreamIT_T0_EPS3_l W
_ZSt17__istream_extractRSiPcl T
_ZSt17__throw_bad_allocv T
_ZSt17__verify_groupingPKcmRKNSt7__cxx1112basic_stringIcSt11char_traitsIcESaIcEEE T
_ZSt17__verify_groupingPKcmRKSs T
_ZSt17iostream_categoryv T
_ZSt18__throw_bad_typeidv T
_ZSt18uncaught_exceptionv T
_ZSt19__throw_ios_failurePKc T
_ZSt19__throw_ios_failurePKci T
_ZSt19__throw_logic_errorPKc T
_ZSt19__throw_range_errorPKc T
_ZSt19uncaught_exceptionsv T
_ZSt20__throw_domain_errorPKc T
_ZSt20__throw_length_errorPKc T
_ZSt20__throw_out_of_rangePKc T
_ZSt20__throw_system_errori T
_ZSt21__copy_streambufs_eofIcSt11char_traitsIcEElPSt15basic_streambufIT_T0_ES6_Rb T
_ZSt21__copy_streambufs_eofIwSt11char_traitsIwEElPSt15basic_streambufIT_T0_ES6_Rb T
_ZSt21__destroy_ios_failurePv T
_ZSt21__throw_bad_exceptionv T
_ZSt21__throw_runtime_errorPKc T
_ZSt22__throw_overflow_errorPKc T
_ZSt22__verify_grouping_implPKcmS0_m T
_ZSt23__construct_ios_failurePvPKc T
_ZSt23__throw_underflow_errorPKc T
_ZSt24__is_ios_failure_handlerPKN10__cxxabiv117__class_type_infoE T
_ZSt24__narrow_multibyte_charsPKcP15__locale_struct T
_ZSt24__throw_invalid_argumentPKc T
_ZSt24__throw_out_of_range_fmtPKcz T
_ZSt25__throw_bad_function_callv T
_ZSt28__throw_bad_array_new_lengthv T
_ZSt2wsIcSt11char_traitsIcEERSt13basic_istreamIT_T0_ES6_ W
_ZSt2wsIwSt11char_traitsIwEERSt13basic_istreamIT_T0_ES6_ W
_ZSt3cin B 118
_ZSt4cerr B 110
_ZSt4clog B 110
_ZSt4cout B 110
_ZSt4endlIcSt11char_traitsIcEERSt13basic_ostreamIT_T0_ES6_ W
_ZSt4endlIwSt11char_traitsIwEERSt13basic_ostreamIT_T0_ES6_ W
_ZSt4endsIcSt11char_traitsIcEERSt13basic_ostreamIT_T0_ES6_ W
_ZSt4endsIwSt11char_traitsIwEERSt13basic_ostreamIT_T0_ES6_ W
_ZSt4wcin B 118
_ZSt5flushIcSt11char_traitsIcEERSt13basic_ostreamIT_T0_ES6_ W
_ZSt5flushIwSt11char_traitsIwEERSt13basic_ostreamIT_T0_ES6_ W
_ZSt5wcerr B 110
_ZSt5wclog B 110
_ZSt5wcout B 110
_ZSt7nothrow R
_ZSt7setfillIcESt8_SetfillIT_ES1_ W
_ZSt7setfillIwESt8_SetfillIT_ES1_ W
_ZSt9has_facetINSt7__cxx1110moneypunctIcLb0EEEEbRKSt6locale W
_ZSt9has_facetINSt7__cxx1110moneypunctIwLb0EEEEbRKSt6locale W
_ZSt9has_facetINSt7__cxx117collateIcEEEbRKSt6locale W
_ZSt9has_facetINSt7__cxx117collateIwEEEbRKSt6locale W
_ZSt9has_facetINSt7__cxx118messagesIcEEEbRKSt6locale W
_ZSt9has_facetINSt7__cxx118messagesIwEEEbRKSt6locale W
_ZSt9has_facetINSt7__cxx118numpunctIcEEEbRKSt6locale W
_ZSt9has_facetINSt7__cxx118numpunctIwEEEbRKSt6locale W
_ZSt9has_facetINSt7__cxx118time_getIcSt19istreambuf_iteratorIcSt11char_traitsIcEEEEEbRKSt6locale W
_ZSt9has_facetINSt7__cxx118time_getIwSt19istreambuf_iteratorIwSt11char_traitsIwEEEEEbRKSt6locale W
_ZSt9has_facetINSt7__cxx119money_getIcSt19istreambuf_iteratorIcSt11char_traitsIcEEEEEbRKSt6locale W
_ZSt9has_facetINSt7__cxx119money_getIwSt19istreambuf_iteratorIwSt11char_traitsIwEEEEEbRKSt6locale W
_ZSt9has_facetINSt7__cxx119money_putIcSt19ostreambuf_iteratorIcSt11char_traitsIcEEEEEbRKSt6locale W
_ZSt9has_facetINSt7__cxx119money_putIwSt19ostreambuf_iteratorIwSt11char_traitsIwEEEEEbRKSt6locale W
_ZSt9has_facetISt10moneypunctIcLb0EEEbRKSt6locale W
_ZSt9has_facetISt10moneypunctIwLb0EEEbRKSt6locale W
_ZSt9has_facetISt11__timepunctIcEEbRKSt6locale W
_ZSt9has_facetISt11__timepunctIwEEbRKSt6locale W
_ZSt9has_facetISt5ctypeIcEEbRKSt6locale W
_ZSt9has_facetISt5ctypeIwEEbRKSt6locale W
_ZSt9has_facetISt7codecvtIcc11__mbstate_tEEbRKSt6locale W
_ZSt9has_facetISt7codecvtIwc11__mbstate_tEEbRKSt6locale W
_ZSt9has_facetISt7collateIcEEbRKSt6locale W
_ZSt9has_facetISt7collateIwEEbRKSt6locale W
_ZSt9has_facetISt7num_getIcSt19istreambuf_iteratorIcSt11char_traitsIcEEEEbRKSt6locale W
_ZSt9has_facetISt7num_getIwSt19istreambuf_iteratorIwSt11char_traitsIwEEEEbRKSt6locale W
_ZSt9has_facetISt7num_putIcSt19ostreambuf_iteratorIcSt11char_traitsIcEEEEbRKSt6locale W
_ZSt9has_facetISt7num_putIwSt19ostreambuf_iteratorIwSt11char_traitsIwEEEEbRKSt6locale W
_ZSt9has_facetISt8messagesIcEEbRKSt6locale W
_ZSt9has_facetISt8messagesIwEEbRKSt6locale W
_ZSt9has_facetISt8numpunctIcEEbRKSt6locale W
_ZSt9has_facetISt8numpunctIwEEbRKSt6locale W
_ZSt9has_facetISt8time_getIcSt19istreambuf_iteratorIcSt11char_traitsIcEEEEbRKSt6locale W
_ZSt9has_facetISt8time_getIwSt19istreambuf_iteratorIwSt11char_traitsIwEEEEbRKSt6locale W
_ZSt9has_facetISt8time_putIcSt19ostreambuf_iteratorIcSt11char_traitsIcEEEEbRKSt6locale W
_ZSt9has_facetISt8time_putIwSt19ostreambuf_iteratorIwSt11char_traitsIwEEEEbRKSt6locale W
_ZSt9has_facetISt9money_getIcSt19istreambuf_iteratorIcSt11char_traitsIcEEEEbRKSt6locale W
_ZSt9has_facetISt9money_getIwSt19istreambuf_iteratorIwSt11char_traitsIwEEEEbRKSt6locale W
_ZSt9has_facetISt9money_putIcSt19ostreambuf_iteratorIcSt11char_traitsIcEEEEbRKSt6locale W
_ZSt9has_facetISt9money_putIwSt19ostreambuf_iteratorIwSt11char_traitsIwEEEEbRKSt6locale W
_ZSt9terminatev T
_ZSt9use_facetINSt7__cxx1110moneypunctIcLb0EEEERKT_RKSt6locale W
_ZSt9use_facetINSt7__cxx1110moneypunctIcLb1EEEERKT_RKSt6locale W
_ZSt9use_facetINSt7__cxx1110moneypunctIwLb0EEEERKT_RKSt6locale W
_ZSt9use_facetINSt7__cxx1110moneypunctIwLb1EEEERKT_RKSt6locale W
_ZSt9use_facetINSt7__cxx117collateIcEEERKT_RKSt6locale W
_ZSt9use_facetINSt7__cxx117collateIwEEERKT_RKSt6locale W
_ZSt9use_facetINSt7__cxx118messagesIcEEERKT_RKSt6locale W
_ZSt9use_facetINSt7__cxx118messagesIwEEERKT_RKSt6locale W
_ZSt9use_facetINSt7__cxx118numpunctIcEEERKT_RKSt6locale W
_ZSt9use_facetINSt7__cxx118numpunctIwEEERKT_RKSt6locale W
_ZSt9use_facetINSt7__cxx118time_getIcSt19istreambuf_iteratorIcSt11char_traitsIcEEEEERKT_RKSt6locale W
_ZSt9use_facetINSt7__cxx118time_getIwSt19istreambuf_iteratorIwSt11char_traitsIwEEEEERKT_RKSt6locale W
_ZSt9use_facetINSt7__cxx119money_getIcSt19istreambuf_iteratorIcSt11char_traitsIcEEEEERKT_RKSt6locale W
_ZSt9use_facetINSt7__cxx119money_getIwSt19istreambuf_iteratorIwSt11char_traitsIwEEEEERKT_RKSt6locale W
_ZSt9use_facetINSt7__cxx119money_putIcSt19ostreambuf_iteratorIcSt11char_traitsIcEEEEERKT_RKSt6locale W
_ZSt9use_facetINSt7__cxx119money_putIwSt19ostreambuf_iteratorIwSt11char_traitsIwEEEEERKT_RKSt6locale W
_ZSt9use_facetISt10moneypunctIcLb0EEERKT_RKSt6locale W
_ZSt9use_facetISt10moneypunctIcLb1EEERKT_RKSt6locale W
_ZSt9use_facetISt10moneypunctIwLb0EEERKT_RKSt6locale W
_ZSt9use_facetISt10moneypunctIwLb1EEERKT_RKSt6locale W
_ZSt9use_facetISt11__timepunctIcEERKT_RKSt6locale W
_ZSt9use_facetISt11__timepunctIwEERKT_RKSt6locale W
_ZSt9use_facetISt5ctypeIcEERKT_RKSt6locale W
_ZSt9use_facetISt5ctypeIwEERKT_RKSt6locale W
_ZSt9use_facetISt7codecvtIcc11__mbstate_tEERKT_RKSt6locale W
_ZSt9use_facetISt7codecvtIwc11__mbstate_tEERKT_RKSt6locale W
_ZSt9use_facetISt7collateIcEERKT_RKSt6locale W
_ZSt9use_facetISt7collateIwEERKT_RKSt6locale W
_ZSt9use_facetISt7num_getIcSt19istreambuf_iteratorIcSt11char_traitsIcEEEERKT_RKSt6locale W
_ZSt9use_facetISt7num_getIwSt19istreambuf_iteratorIwSt11char_traitsIwEEEERKT_RKSt6locale W
_ZSt9use_facetISt7num_putIcSt19ostreambuf_iteratorIcSt11char_traitsIcEEEERKT_RKSt6locale W
_ZSt9use_facetISt7num_putIwSt19ostreambuf_iteratorIwSt11char_traitsIwEEEERKT_RKSt6locale W
_ZSt9use_facetISt8messagesIcEERKT_RKSt6locale W
_ZSt9use_facetISt8messagesIwEERKT_RKSt6locale W
_ZSt9use_facetISt8numpunctIcEERKT_RKSt6locale W
_ZSt9use_facetISt8numpunctIwEERKT_RKSt6locale W
_ZSt9use_facetISt8time_getIcSt19istreambuf_iteratorIcSt11char_traitsIcEEEERKT_RKSt6locale W
_ZSt9use_facetISt8time_getIwSt19istreambuf_iteratorIwSt11char_traitsIwEEEERKT_RKSt6locale W
_ZSt9use_facetISt8time_putIcSt19ostreambuf_iteratorIcSt11char_traitsIcEEEERKT_RKSt6locale W
_ZSt9use_facetISt8time_putIwSt19ostreambuf_iteratorIwSt11char_traitsIwEEEERKT_RKSt6locale W
_ZSt9use_facetISt9money_getIcSt19istreambuf_iteratorIcSt11char_traitsIcEEEERKT_RKSt6locale W
_ZSt9use_facetISt9money_getIwSt19istreambuf_iteratorIwSt11char_traitsIwEEEERKT_RKSt6locale W
_ZSt9use_facetISt9money_putIcSt19ostreambuf_iteratorIcSt11char_traitsIcEEEERKT_RKSt6locale W
_ZSt9use_facetISt9money_putIwSt19ostreambuf_iteratorIwSt11char_traitsIwEEEERKT_RKSt6locale W
_ZStlsISt11char_traitsIcEERSt13basic_ostreamIcT_ES5_PKa W
_ZStlsISt11char_traitsIcEERSt13basic_ostreamIcT_ES5_PKc W
_ZStlsISt11char_traitsIcEERSt13basic_ostreamIcT_ES5_PKh W
_ZStlsISt11char_traitsIcEERSt13basic_ostreamIcT_ES5_a W
_ZStlsISt11char_traitsIcEERSt13basic_ostreamIcT_ES5_c W
_ZStlsISt11char_traitsIcEERSt13basic_ostreamIcT_ES5_h W
_ZStlsIcSt11char_traitsIcEERSt13basic_ostreamIT_T0_ES6_St12_Setiosflags W
_ZStlsIcSt11char_traitsIcEERSt13basic_ostreamIT_T0_ES6_St13_Setprecision W
_ZStlsIcSt11char_traitsIcEERSt13basic_ostreamIT_T0_ES6_St14_Resetiosflags W
_ZStlsIcSt11char_traitsIcEERSt13basic_ostreamIT_T0_ES6_St5_Setw W
_ZStlsIcSt11char_traitsIcEERSt13basic_ostreamIT_T0_ES6_St8_Setbase W
_ZStlsIcSt11char_traitsIcEERSt13basic_ostreamIT_T0_ES6_St8_SetfillIS3_E W
_ZStlsIwSt11char_traitsIwEERSt13basic_ostreamIT_T0_ES6_PKS3_ W
_ZStlsIwSt11char_traitsIwEERSt13basic_ostreamIT_T0_ES6_PKc W
_ZStlsIwSt11char_traitsIwEERSt13basic_ostreamIT_T0_ES6_S3_ W
_ZStlsIwSt11char_traitsIwEERSt13basic_ostreamIT_T0_ES6_St12_Setiosflags W
_ZStlsIwSt11char_traitsIwEERSt13basic_ostreamIT_T0_ES6_St13_Setprecision W
_ZStlsIwSt11char_traitsIwEERSt13basic_ostreamIT_T0_ES6_St14_Resetiosflags W
_ZStlsIwSt11char_traitsIwEERSt13basic_ostreamIT_T0_ES6_St5_Setw W
_ZStlsIwSt11char_traitsIwEERSt13basic_ostreamIT_T0_ES6_St8_Setbase W
_ZStlsIwSt11char_traitsIwEERSt13basic_ostreamIT_T0_ES6_St8_SetfillIS3_E W
_ZStlsIwSt11char_traitsIwEERSt13basic_ostreamIT_T0_ES6_c W
_ZStplIcSt11char_traitsIcESaIcEENSt7__cxx1112basic_stringIT_T0_T1_EEPKS5_RKS8_ W
_ZStplIcSt11char_traitsIcESaIcEENSt7__cxx1112basic_stringIT_T0_T1_EERKS8_SA_ W
_ZStplIcSt11char_traitsIcESaIcEENSt7__cxx1112basic_stringIT_T0_T1_EES5_RKS8_ W
_ZStplIcSt11char_traitsIcESaIcEESbIT_T0_T1_EPKS3_RKS6_ W
_ZStplIcSt11char_traitsIcESaIcEESbIT_T0_T1_ERKS6_S8_ W
_ZStplIcSt11char_traitsIcESaIcEESbIT_T0_T1_ES3_RKS6_ W
_ZStplIwSt11char_traitsIwESaIwEENSt7__cxx1112basic_stringIT_T0_T1_EEPKS5_RKS8_ W
_ZStplIwSt11char_traitsIwESaIwEENSt7__cxx1112basic_stringIT_T0_T1_EERKS8_SA_ W
_ZStplIwSt11char_traitsIwESaIwEENSt7__cxx1112basic_stringIT_T0_T1_EES5_RKS8_ W
_ZStplIwSt11char_traitsIwESaIwEESbIT_T0_T1_EPKS3_RKS6_ W
_ZStplIwSt11char_traitsIwESaIwEESbIT_T0_T1_ERKS6_S8_ W
_ZStplIwSt11char_traitsIwESaIwEESbIT_T0_T1_ES3_RKS6_ W
_ZStrsISt11char_traitsIcEERSt13basic_istreamIcT_ES5_Pa W
_ZStrsISt11char_traitsIcEERSt13basic_istreamIcT_ES5_Ph W
_ZStrsISt11char_traitsIcEERSt13basic_istreamIcT_ES5_Ra W
_ZStrsISt11char_traitsIcEERSt13basic_istreamIcT_ES5_Rh W
_ZStrsIcSt11char_traitsIcEERSt13basic_istreamIT_T0_ES6_PS3_ W
_ZStrsIcSt11char_traitsIcEERSt13basic_istreamIT_T0_ES6_RS3_ W
_ZStrsIcSt11char_traitsIcEERSt13basic_istreamIT_T0_ES6_St12_Setiosflags W
_ZStrsIcSt11char_traitsIcEERSt13basic_istreamIT_T0_ES6_St13_Setprecision W
_ZStrsIcSt11char_traitsIcEERSt13basic_istreamIT_T0_ES6_St14_Resetiosflags W
_ZStrsIcSt11char_traitsIcEERSt13basic_istreamIT_T0_ES6_St5_Setw W
_ZStrsIcSt11char_traitsIcEERSt13basic_istreamIT_T0_ES6_St8_Setbase W
_ZStrsIcSt11char_traitsIcEERSt13basic_istreamIT_T0_ES6_St8_SetfillIS3_E W
_ZStrsIwSt11char_traitsIwEERSt13basic_istreamIT_T0_ES6_PS3_ W
_ZStrsIwSt11char_traitsIwEERSt13basic_istreamIT_T0_ES6_RS3_ W
_ZStrsIwSt11char_traitsIwEERSt13basic_istreamIT_T0_ES6_St12_Setiosflags W
_ZStrsIwSt11char_traitsIwEERSt13basic_istreamIT_T0_ES6_St13_Setprecision W
_ZStrsIwSt11char_traitsIwEERSt13basic_istreamIT_T0_ES6_St14_Resetiosflags W
_ZStrsIwSt11char_traitsIwEERSt13basic_istreamIT_T0_ES6_St5_Setw W
_ZStrsIwSt11char_traitsIwEERSt13basic_istreamIT_T0_ES6_St8_Setbase W
_ZStrsIwSt11char_traitsIwEERSt13basic_istreamIT_T0_ES6_St8_SetfillIS3_E W
_ZTI13G4AccumulableIdE V
_ZTI14G4VAccumulable V
_ZTIN10__cxxabiv115__forced_unwindE V
_ZTIN10__cxxabiv117__class_type_infoE V
_ZTIN10__cxxabiv119__foreign_exceptionE V
_ZTIN10__cxxabiv120__si_class_type_infoE V
_ZTIN10__cxxabiv121__vmi_class_type_infoE V
_ZTIN2B111EventActionE D 18
_ZTIN2B114SteppingActionE D 18
_ZTIN2B120ActionInitializationE D 18
_ZTIN2B120DetectorConstructionE D 18
_ZTIN2B122PrimaryGeneratorActionE D 18
_ZTIN2B19RunActionE D 18
_ZTIN9__gnu_cxx13stdio_filebufIcSt11char_traitsIcEEE V
_ZTIN9__gnu_cxx13stdio_filebufIwSt11char_traitsIwEEE V
_ZTIN9__gnu_cxx18stdio_sync_filebufIcSt11char_traitsIcEEE V
_ZTIN9__gnu_cxx18stdio_sync_filebufIwSt11char_traitsIwEEE V
_ZTIN9__gnu_cxx20recursive_init_errorE V
_ZTIN9__gnu_cxx24__concurrence_lock_errorE V
_ZTIN9__gnu_cxx26__concurrence_unlock_errorE V
_ZTINSt3_V214error_categoryE V
_ZTINSt6locale5facet6__shimE V
_ZTINSt6locale5facetE V
_ZTINSt7__cxx1110moneypunctIcLb0EEE V
_ZTINSt7__cxx1110moneypunctIcLb1EEE V
_ZTINSt7__cxx1110moneypunctIwLb0EEE V
_ZTINSt7__cxx1110moneypunctIwLb1EEE V
_ZTINSt7__cxx1114collate_bynameIcEE V
_ZTINSt7__cxx1114collate_bynameIwEE V
_ZTINSt7__cxx1115basic_stringbufIcSt11char_traitsIcESaIcEEE V
_ZTINSt7__cxx1115basic_stringbufIwSt11char_traitsIwESaIwEEE V
_ZTINSt7__cxx1115messages_bynameIcEE V
_ZTINSt7__cxx1115messages_bynameIwEE V
_ZTINSt7__cxx1115numpunct_bynameIcEE V
_ZTINSt7__cxx1115numpunct_bynameIwEE V
_ZTINSt7__cxx1115time_get_bynameIcSt19istreambuf_iteratorIcSt11char_traitsIcEEEE V
_ZTINSt7__cxx1115time_get_bynameIwSt19istreambuf_iteratorIwSt11char_traitsIwEEEE V
_ZTINSt7__cxx1117moneypunct_bynameIcLb0EEE V
_ZTINSt7__cxx1117moneypunct_bynameIcLb1EEE V
_ZTINSt7__cxx1117moneypunct_bynameIwLb0EEE V
_ZTINSt7__cxx1117moneypunct_bynameIwLb1EEE V
_ZTINSt7__cxx1118basic_stringstreamIcSt11char_traitsIcESaIcEEE V
_ZTINSt7__cxx1118basic_stringstreamIwSt11char_traitsIwESaIwEEE V
_ZTINSt7__cxx1119basic_istringstreamIcSt11char_traitsIcESaIcEEE V
_ZTINSt7__cxx1119basic_istringstreamIwSt11char_traitsIwESaIwEEE V
_ZTINSt7__cxx1119basic_ostringstreamIcSt11char_traitsIcESaIcEEE V
_ZTINSt7__cxx1119basic_ostringstreamIwSt11char_traitsIwESaIwEEE V
_ZTINSt7__cxx117collateIcEE V
_ZTINSt7__cxx117collateIwEE V
_ZTINSt7__cxx118messagesIcEE V
_ZTINSt7__cxx118messagesIwEE V
_ZTINSt7__cxx118numpunctIcEE V
_ZTINSt7__cxx118numpunctIwEE V
_ZTINSt7__cxx118time_getIcSt19istreambuf_iteratorIcSt11char_traitsIcEEEE V
_ZTINSt7__cxx118time_getIwSt19istreambuf_iteratorIwSt11char_traitsIwEEEE V
_ZTINSt7__cxx119money_getIcSt19istreambuf_iteratorIcSt11char_traitsIcEEEE V
_ZTINSt7__cxx119money_getIwSt19istreambuf_iteratorIwSt11char_traitsIwEEEE V
_ZTINSt7__cxx119money_putIcSt19ostreambuf_iteratorIcSt11char_traitsIcEEEE V
_ZTINSt7__cxx119money_putIwSt19ostreambuf_iteratorIwSt11char_traitsIwEEEE V
_ZTINSt8ios_base7failureB5cxx11E V
_ZTINSt8ios_base7failureE V
_ZTISd V
_ZTISi V
_ZTISo V
_ZTISt10bad_typeid V
_ZTISt10ctype_base V
_ZTISt10money_base V
_ZTISt10moneypunctIcLb0EE V
_ZTISt10moneypunctIcLb1EE V
_ZTISt10moneypunctIwLb0EE V
_ZTISt10moneypunctIwLb1EE V
_ZTISt11__timepunctIcE V
_ZTISt11__timepunctIwE V
_ZTISt11logic_error V
_ZTISt11range_error V
_ZTISt12codecvt_base V
_ZTISt12ctype_bynameIcE V
_ZTISt12ctype_bynameIwE V
_ZTISt12domain_error V
_ZTISt12length_error V
_ZTISt12out_of_range V
_ZTISt12system_error V
_ZTISt13__ios_failure V
_ZTISt13bad_exception V
_ZTISt13basic_filebufIcSt11char_traitsIcEE V
_ZTISt13basic_filebufIwSt11char_traitsIwEE V
_ZTISt13basic_fstreamIcSt11char_traitsIcEE V
_ZTISt13basic_fstreamIwSt11char_traitsIwEE V
_ZTISt13basic_istreamIwSt11char_traitsIwEE V
_ZTISt13basic_ostreamIwSt11char_traitsIwEE V
_ZTISt13messages_base V
_ZTISt13runtime_error V
_ZTISt14basic_ifstreamIcSt11char_traitsIcEE V
_ZTISt14basic_ifstreamIwSt11char_traitsIwEE V
_ZTISt14basic_iostreamIwSt11char_traitsIwEE V
_ZTISt14basic_ofstreamIcSt11char_traitsIcEE V
_ZTISt14basic_ofstreamIwSt11char_traitsIwEE V
_ZTISt14codecvt_bynameIcc11__mbstate_tE V
_ZTISt14codecvt_bynameIwc11__mbstate_tE V
_ZTISt14collate_bynameIcE V
_ZTISt14collate_bynameIwE V
_ZTISt14overflow_error V
_ZTISt15basic_streambufIcSt11char_traitsIcEE V
_ZTISt15basic_streambufIwSt11char_traitsIwEE V
_ZTISt15messages_bynameIcE V
_ZTISt15messages_bynameIwE V
_ZTISt15numpunct_bynameIcE V
_ZTISt15numpunct_bynameIwE V
_ZTISt15time_get_bynameIcSt19istreambuf_iteratorIcSt11char_traitsIcEEE V
_ZTISt15time_get_bynameIwSt19istreambuf_iteratorIwSt11char_traitsIwEEE V
_ZTISt15time_put_bynameIcSt19ostreambuf_iteratorIcSt11char_traitsIcEEE V
_ZTISt15time_put_bynameIwSt19ostreambuf_iteratorIwSt11char_traitsIwEEE V
_ZTISt15underflow_error V
_ZTISt16__numpunct_cacheIcE V
_ZTISt16__numpunct_cacheIwE V
_ZTISt16invalid_argument V
_ZTISt17__timepunct_cacheIcE V
_ZTISt17__timepunct_cacheIwE V
_ZTISt17bad_function_call V
_ZTISt17moneypunct_bynameIcLb0EE V
_ZTISt17moneypunct_bynameIcLb1EE V
_ZTISt17moneypunct_bynameIwLb0EE V
_ZTISt17moneypunct_bynameIwLb1EE V
_ZTISt18__moneypunct_cacheIcLb0EE V
_ZTISt18__moneypunct_cacheIcLb1EE V
_ZTISt18__moneypunct_cacheIwLb0EE V
_ZTISt18__moneypunct_cacheIwLb1EE V
_ZTISt19__codecvt_utf8_baseIDiE V
_ZTISt19__codecvt_utf8_baseIDsE V
_ZTISt19__codecvt_utf8_baseIwE V
_ZTISt19__iosfail_type_info V
_ZTISt20__codecvt_utf16_baseIDiE V
_ZTISt20__codecvt_utf16_baseIDsE V
_ZTISt20__codecvt_utf16_baseIwE V
_ZTISt20bad_array_new_length V
_ZTISt21__ctype_abstract_baseIcE V
_ZTISt21__ctype_abstract_baseIwE V
_ZTISt23__codecvt_abstract_baseIDiDu11__mbstate_tE V
_ZTISt23__codecvt_abstract_baseIDic11__mbstate_tE V
_ZTISt23__codecvt_abstract_baseIDsDu11__mbstate_tE V
_ZTISt23__codecvt_abstract_baseIDsc11__mbstate_tE V
_ZTISt23__codecvt_abstract_baseIcc11__mbstate_tE V
_ZTISt23__codecvt_abstract_baseIwc11__mbstate_tE V
_ZTISt25__codecvt_utf8_utf16_baseIDiE V
_ZTISt25__codecvt_utf8_utf16_baseIDsE V
_ZTISt25__codecvt_utf8_utf16_baseIwE V
_ZTISt5ctypeIcE V
_ZTISt5ctypeIwE V
_ZTISt7codecvtIDiDu11__mbstate_tE V
_ZTISt7codecvtIDic11__mbstate_tE V
_ZTISt7codecvtIDsDu11__mbstate_tE V
_ZTISt7codecvtIDsc11__mbstate_tE V
_ZTISt7codecvtIcc11__mbstate_tE V
_ZTISt7codecvtIwc11__mbstate_tE V
_ZTISt7collateIcE V
_ZTISt7collateIwE V
_ZTISt7num_getIcSt19istreambuf_iteratorIcSt11char_traitsIcEEE V
_ZTISt7num_getIwSt19istreambuf_iteratorIwSt11char_traitsIwEEE V
_ZTISt7num_putIcSt19ostreambuf_iteratorIcSt11char_traitsIcEEE V
_ZTISt7num_putIwSt19ostreambuf_iteratorIwSt11char_traitsIwEEE V
_ZTISt8bad_cast V
_ZTISt8ios_base V
_ZTISt8messagesIcE V
_ZTISt8messagesIwE V
_ZTISt8numpunctIcE V
_ZTISt8numpunctIwE V
_ZTISt8time_getIcSt19istreambuf_iteratorIcSt11char_traitsIcEEE V
_ZTISt8time_getIwSt19istreambuf_iteratorIwSt11char_traitsIwEEE V
_ZTISt8time_putIcSt19ostreambuf_iteratorIcSt11char_traitsIcEEE V
_ZTISt8time_putIwSt19ostreambuf_iteratorIwSt11char_traitsIwEEE V
_ZTISt9bad_alloc V
_ZTISt9basic_iosIcSt11char_traitsIcEE V
_ZTISt9basic_iosIwSt11char_traitsIwEE V
_ZTISt9exception V
_ZTISt9money_getIcSt19istreambuf_iteratorIcSt11char_traitsIcEEE V
_ZTISt9money_getIwSt19istreambuf_iteratorIwSt11char_traitsIwEEE V
_ZTISt9money_putIcSt19ostreambuf_iteratorIcSt11char_traitsIcEEE V
_ZTISt9money_putIwSt19ostreambuf_iteratorIwSt11char_traitsIwEEE V
_ZTISt9time_base V
_ZTISt9type_info V
_ZTIZN14G4Accumulables16GetMergeFunctionIdEESt8functionIFT_RKS2_S4_EE11G4MergeModeEUlRKdS9_E_ V
_ZTS13G4AccumulableIdE V
_ZTS14G4VAccumulable V
_ZTSN10__cxxabiv115__forced_unwindE V
_ZTSN10__cxxabiv117__class_type_infoE V
_ZTSN10__cxxabiv119__foreign_exceptionE V
_ZTSN10__cxxabiv120__si_class_type_infoE V
_ZTSN10__cxxabiv121__vmi_class_type_infoE V
_ZTSN2B111EventActionE R
_ZTSN2B114SteppingActionE R
_ZTSN2B120ActionInitializationE R
_ZTSN2B120DetectorConstructionE R
_ZTSN2B122PrimaryGeneratorActionE R
_ZTSN2B19RunActionE R
_ZTSN9__gnu_cxx13stdio_filebufIcSt11char_traitsIcEEE V
_ZTSN9__gnu_cxx13stdio_filebufIwSt11char_traitsIwEEE V
_ZTSN9__gnu_cxx18stdio_sync_filebufIcSt11char_traitsIcEEE V
_ZTSN9__gnu_cxx18stdio_sync_filebufIwSt11char_traitsIwEEE V
_ZTSN9__gnu_cxx20recursive_init_errorE V
_ZTSN9__gnu_cxx24__concurrence_lock_errorE V
_ZTSN9__gnu_cxx26__concurrence_unlock_errorE V
_ZTSNSt3_V214error_categoryE V
_ZTSNSt6locale5facet6__shimE V
_ZTSNSt6locale5facetE V
_ZTSNSt7__cxx1110moneypunctIcLb0EEE V
_ZTSNSt7__cxx1110moneypunctIcLb1EEE V
_ZTSNSt7__cxx1110moneypunctIwLb0EEE V
_ZTSNSt7__cxx1110moneypunctIwLb1EEE V
_ZTSNSt7__cxx1114collate_bynameIcEE V
_ZTSNSt7__cxx1114collate_bynameIwEE V
_ZTSNSt7__cxx1115basic_stringbufIcSt11char_traitsIcESaIcEEE V
_ZTSNSt7__cxx1115basic_stringbufIwSt11char_traitsIwESaIwEEE V
_ZTSNSt7__cxx1115messages_bynameIcEE V
_ZTSNSt7__cxx1115messages_bynameIwEE V
_ZTSNSt7__cxx1115numpunct_bynameIcEE V
_ZTSNSt7__cxx1115numpunct_bynameIwEE V
_ZTSNSt7__cxx1115time_get_bynameIcSt19istreambuf_iteratorIcSt11char_traitsIcEEEE V
_ZTSNSt7__cxx1115time_get_bynameIwSt19istreambuf_iteratorIwSt11char_traitsIwEEEE V
_ZTSNSt7__cxx1117moneypunct_bynameIcLb0EEE V
_ZTSNSt7__cxx1117moneypunct_bynameIcLb1EEE V
_ZTSNSt7__cxx1117moneypunct_bynameIwLb0EEE V
_ZTSNSt7__cxx1117moneypunct_bynameIwLb1EEE V
_ZTSNSt7__cxx1118basic_stringstreamIcSt11char_traitsIcESaIcEEE V
_ZTSNSt7__cxx1118basic_stringstreamIwSt11char_traitsIwESaIwEEE V
_ZTSNSt7__cxx1119basic_istringstreamIcSt11char_traitsIcESaIcEEE V
_ZTSNSt7__cxx1119basic_istringstreamIwSt11char_traitsIwESaIwEEE V
_ZTSNSt7__cxx1119basic_ostringstreamIcSt11char_traitsIcESaIcEEE V
_ZTSNSt7__cxx1119basic_ostringstreamIwSt11char_traitsIwESaIwEEE V
_ZTSNSt7__cxx117collateIcEE V
_ZTSNSt7__cxx117collateIwEE V
_ZTSNSt7__cxx118messagesIcEE V
_ZTSNSt7__cxx118messagesIwEE V
_ZTSNSt7__cxx118numpunctIcEE V
_ZTSNSt7__cxx118numpunctIwEE V
_ZTSNSt7__cxx118time_getIcSt19istreambuf_iteratorIcSt11char_traitsIcEEEE V
_ZTSNSt7__cxx118time_getIwSt19istreambuf_iteratorIwSt11char_traitsIwEEEE V
_ZTSNSt7__cxx119money_getIcSt19istreambuf_iteratorIcSt11char_traitsIcEEEE V
_ZTSNSt7__cxx119money_getIwSt19istreambuf_iteratorIwSt11char_traitsIwEEEE V
_ZTSNSt7__cxx119money_putIcSt19ostreambuf_iteratorIcSt11char_traitsIcEEEE V
_ZTSNSt7__cxx119money_putIwSt19ostreambuf_iteratorIwSt11char_traitsIwEEEE V
_ZTSNSt8ios_base7failureB5cxx11E V
_ZTSNSt8ios_base7failureE V
_ZTSSd V
_ZTSSi V
_ZTSSo V
_ZTSSt10bad_typeid V
_ZTSSt10ctype_base V
_ZTSSt10money_base V
_ZTSSt10moneypunctIcLb0EE V
_ZTSSt10moneypunctIcLb1EE V
_ZTSSt10moneypunctIwLb0EE V
_ZTSSt10moneypunctIwLb1EE V
_ZTSSt11__timepunctIcE V
_ZTSSt11__timepunctIwE V
_ZTSSt11logic_error V
_ZTSSt11range_error V
_ZTSSt12codecvt_base V
_ZTSSt12ctype_bynameIcE V
_ZTSSt12ctype_bynameIwE V
_ZTSSt12domain_error V
_ZTSSt12length_error V
_ZTSSt12out_of_range V
_ZTSSt12system_error V
_ZTSSt13__ios_failure V
_ZTSSt13bad_exception V
_ZTSSt13basic_filebufIcSt11char_traitsIcEE V
_ZTSSt13basic_filebufIwSt11char_traitsIwEE V
_ZTSSt13basic_fstreamIcSt11char_traitsIcEE V
_ZTSSt13basic_fstreamIwSt11char_traitsIwEE V
_ZTSSt13basic_istreamIwSt11char_traitsIwEE V
_ZTSSt13basic_ostreamIwSt11char_traitsIwEE V
_ZTSSt13messages_base V
_ZTSSt13runtime_error V
_ZTSSt14basic_ifstreamIcSt11char_traitsIcEE V
_ZTSSt14basic_ifstreamIwSt11char_traitsIwEE V
_ZTSSt14basic_iostreamIwSt11char_traitsIwEE V
_ZTSSt14basic_ofstreamIcSt11char_traitsIcEE V
_ZTSSt14basic_ofstreamIwSt11char_traitsIwEE V
_ZTSSt14codecvt_bynameIcc11__mbstate_tE V
_ZTSSt14codecvt_bynameIwc11__mbstate_tE V
_ZTSSt14collate_bynameIcE V
_ZTSSt14collate_bynameIwE V
_ZTSSt14overflow_error V
_ZTSSt15basic_streambufIcSt11char_traitsIcEE V
_ZTSSt15basic_streambufIwSt11char_traitsIwEE V
_ZTSSt15messages_bynameIcE V
_ZTSSt15messages_bynameIwE V
_ZTSSt15numpunct_bynameIcE V
_ZTSSt15numpunct_bynameIwE V
_ZTSSt15time_get_bynameIcSt19istreambuf_iteratorIcSt11char_traitsIcEEE V
_ZTSSt15time_get_bynameIwSt19istreambuf_iteratorIwSt11char_traitsIwEEE V
_ZTSSt15time_put_bynameIcSt19ostreambuf_iteratorIcSt11char_traitsIcEEE V
_ZTSSt15time_put_bynameIwSt19ostreambuf_iteratorIwSt11char_traitsIwEEE V
_ZTSSt15underflow_error V
_ZTSSt16__numpunct_cacheIcE V
_ZTSSt16__numpunct_cacheIwE V
_ZTSSt16invalid_argument V
_ZTSSt17__timepunct_cacheIcE V
_ZTSSt17__timepunct_cacheIwE V
_ZTSSt17bad_function_call V
_ZTSSt17moneypunct_bynameIcLb0EE V
_ZTSSt17moneypunct_bynameIcLb1EE V
_ZTSSt17moneypunct_bynameIwLb0EE V
_ZTSSt17moneypunct_bynameIwLb1EE V
_ZTSSt18__moneypunct_cacheIcLb0EE V
_ZTSSt18__moneypunct_cacheIcLb1EE V
_ZTSSt18__moneypunct_cacheIwLb0EE V
_ZTSSt18__moneypunct_cacheIwLb1EE V
_ZTSSt19__codecvt_utf8_baseIDiE V
_ZTSSt19__codecvt_utf8_baseIDsE V
_ZTSSt19__codecvt_utf8_baseIwE V
_ZTSSt19__iosfail_type_info V
_ZTSSt20__codecvt_utf16_baseIDiE V
_ZTSSt20__codecvt_utf16_baseIDsE V
_ZTSSt20__codecvt_utf16_baseIwE V
_ZTSSt20bad_array_new_length V
_ZTSSt21__ctype_abstract_baseIcE V
_ZTSSt21__ctype_abstract_baseIwE V
_ZTSSt23__codecvt_abstract_baseIDiDu11__mbstate_tE V
_ZTSSt23__codecvt_abstract_baseIDic11__mbstate_tE V
_ZTSSt23__codecvt_abstract_baseIDsDu11__mbstate_tE V
_ZTSSt23__codecvt_abstract_baseIDsc11__mbstate_tE V
_ZTSSt23__codecvt_abstract_baseIcc11__mbstate_tE V
_ZTSSt23__codecvt_abstract_baseIwc11__mbstate_tE V
_ZTSSt25__codecvt_utf8_utf16_baseIDiE V
_ZTSSt25__codecvt_utf8_utf16_baseIDsE V
_ZTSSt25__codecvt_utf8_utf16_baseIwE V
_ZTSSt5ctypeIcE V
_ZTSSt5ctypeIwE V
_ZTSSt7codecvtIDiDu11__mbstate_tE V
_ZTSSt7codecvtIDic11__mbstate_tE V
_ZTSSt7codecvtIDsDu11__mbstate_tE V
_ZTSSt7codecvtIDsc11__mbstate_tE V
_ZTSSt7codecvtIcc11__mbstate_tE V
_ZTSSt7codecvtIwc11__mbstate_tE V
_ZTSSt7collateIcE V
_ZTSSt7collateIwE V
_ZTSSt7num_getIcSt19istreambuf_iteratorIcSt11char_traitsIcEEE V
_ZTSSt7num_getIwSt19istreambuf_iteratorIwSt11char_traitsIwEEE V
_ZTSSt7num_putIcSt19ostreambuf_iteratorIcSt11char_traitsIcEEE V
_ZTSSt7num_putIwSt19ostreambuf_iteratorIwSt11char_traitsIwEEE V
_ZTSSt8bad_cast V
_ZTSSt8ios_base V
_ZTSSt8messagesIcE V
_ZTSSt8messagesIwE V
_ZTSSt8numpunctIcE V
_ZTSSt8numpunctIwE V
_ZTSSt8time_getIcSt19istreambuf_iteratorIcSt11char_traitsIcEEE V
_ZTSSt8time_getIwSt19istreambuf_iteratorIwSt11char_traitsIwEEE V
_ZTSSt8time_putIcSt19ostreambuf_iteratorIcSt11char_traitsIcEEE V
_ZTSSt8time_putIwSt19ostreambuf_iteratorIwSt11char_traitsIwEEE V
_ZTSSt9bad_alloc V
_ZTSSt9basic_iosIcSt11char_traitsIcEE V
_ZTSSt9basic_iosIwSt11char_traitsIwEE V
_ZTSSt9exception V
_ZTSSt9money_getIcSt19istreambuf_iteratorIcSt11char_traitsIcEEE V
_ZTSSt9money_getIwSt19istreambuf_iteratorIwSt11char_traitsIwEEE V
_ZTSSt9money_putIcSt19ostreambuf_iteratorIcSt11char_traitsIcEEE V
_ZTSSt9money_putIwSt19ostreambuf_iteratorIwSt11char_traitsIwEEE V
_ZTSSt9time_base V
_ZTSSt9type_info V
_ZTSZN14G4Accumulables16GetMergeFunctionIdEESt8functionIFT_RKS2_S4_EE11G4MergeModeEUlRKdS9_E_ V
_ZTTNSt7__cxx1118basic_stringstreamIcSt11char_traitsIcESaIcEEE V
_ZTTNSt7__cxx1118basic_stringstreamIwSt11char_traitsIwESaIwEEE V
_ZTTNSt7__cxx1119basic_istringstreamIcSt11char_traitsIcESaIcEEE V
_ZTTNSt7__cxx1119basic_istringstreamIwSt11char_traitsIwESaIwEEE V
_ZTTNSt7__cxx1119basic_ostringstreamIcSt11char_traitsIcESaIcEEE V
_ZTTNSt7__cxx1119basic_ostringstreamIwSt11char_traitsIwESaIwEEE V
_ZTTSd V
_ZTTSi V
_ZTTSo V
_ZTTSt13basic_fstreamIcSt11char_traitsIcEE V
_ZTTSt13basic_fstreamIwSt11char_traitsIwEE V
_ZTTSt13basic_istreamIwSt11char_traitsIwEE V
_ZTTSt13basic_ostreamIwSt11char_traitsIwEE V
_ZTTSt14basic_ifstreamIcSt11char_traitsIcEE V
_ZTTSt14basic_ifstreamIwSt11char_traitsIwEE V
_ZTTSt14basic_iostreamIwSt11char_traitsIwEE V
_ZTTSt14basic_ofstreamIcSt11char_traitsIcEE V
_ZTTSt14basic_ofstreamIwSt11char_traitsIwEE V
_ZTV13G4AccumulableIdE V
_ZTV14G4VAccumulable V
_ZTVN10__cxxabiv115__forced_unwindE V
_ZTVN10__cxxabiv117__class_type_infoE V
_ZTVN10__cxxabiv119__foreign_exceptionE V
_ZTVN10__cxxabiv120__si_class_type_infoE V
_ZTVN10__cxxabiv121__vmi_class_type_infoE V
_ZTVN2B111EventActionE D 38
_ZTVN2B114SteppingActionE D 30
_ZTVN2B120ActionInitializationE D 38
_ZTVN2B120DetectorConstructionE D 40
_ZTVN2B122PrimaryGeneratorActionE D 28
_ZTVN2B19RunActionE D 40
_ZTVN9__gnu_cxx13stdio_filebufIcSt11char_traitsIcEEE V
_ZTVN9__gnu_cxx13stdio_filebufIwSt11char_traitsIwEEE V
_ZTVN9__gnu_cxx18stdio_sync_filebufIcSt11char_traitsIcEEE V
_ZTVN9__gnu_cxx18stdio_sync_filebufIwSt11char_traitsIwEEE V
_ZTVN9__gnu_cxx20recursive_init_errorE V
_ZTVN9__gnu_cxx24__concurrence_lock_errorE V
_ZTVN9__gnu_cxx26__concurrence_unlock_errorE V
_ZTVNSt3_V214error_categoryE V
_ZTVNSt6locale5facetE V
_ZTVNSt7__cxx1110moneypunctIcLb0EEE V
_ZTVNSt7__cxx1110moneypunctIcLb1EEE V
_ZTVNSt7__cxx1110moneypunctIwLb0EEE V
_ZTVNSt7__cxx1110moneypunctIwLb1EEE V
_ZTVNSt7__cxx1114collate_bynameIcEE V
_ZTVNSt7__cxx1114collate_bynameIwEE V
_ZTVNSt7__cxx1115basic_stringbufIcSt11char_traitsIcESaIcEEE V
_ZTVNSt7__cxx1115basic_stringbufIwSt11char_traitsIwESaIwEEE V
_ZTVNSt7__cxx1115messages_bynameIcEE V
_ZTVNSt7__cxx1115messages_bynameIwEE V
_ZTVNSt7__cxx1115numpunct_bynameIcEE V
_ZTVNSt7__cxx1115numpunct_bynameIwEE V
_ZTVNSt7__cxx1115time_get_bynameIcSt19istreambuf_iteratorIcSt11char_traitsIcEEEE V
_ZTVNSt7__cxx1115time_get_bynameIwSt19istreambuf_iteratorIwSt11char_traitsIwEEEE V
_ZTVNSt7__cxx1117moneypunct_bynameIcLb0EEE V
_ZTVNSt7__cxx1117moneypunct_bynameIcLb1EEE V
_ZTVNSt7__cxx1117moneypunct_bynameIwLb0EEE V
_ZTVNSt7__cxx1117moneypunct_bynameIwLb1EEE V
_ZTVNSt7__cxx1118basic_stringstreamIcSt11char_traitsIcESaIcEEE V
_ZTVNSt7__cxx1118basic_stringstreamIwSt11char_traitsIwESaIwEEE V
_ZTVNSt7__cxx1119basic_istringstreamIcSt11char_traitsIcESaIcEEE V
_ZTVNSt7__cxx1119basic_istringstreamIwSt11char_traitsIwESaIwEEE V
_ZTVNSt7__cxx1119basic_ostringstreamIcSt11char_traitsIcESaIcEEE V
_ZTVNSt7__cxx1119basic_ostringstreamIwSt11char_traitsIwESaIwEEE V
_ZTVNSt7__cxx117collateIcEE V
_ZTVNSt7__cxx117collateIwEE V
_ZTVNSt7__cxx118messagesIcEE V
_ZTVNSt7__cxx118messagesIwEE V
_ZTVNSt7__cxx118numpunctIcEE V
_ZTVNSt7__cxx118numpunctIwEE V
_ZTVNSt7__cxx118time_getIcSt19istreambuf_iteratorIcSt11char_traitsIcEEEE V
_ZTVNSt7__cxx118time_getIwSt19istreambuf_iteratorIwSt11char_traitsIwEEEE V
_ZTVNSt7__cxx119money_getIcSt19istreambuf_iteratorIcSt11char_traitsIcEEEE V
_ZTVNSt7__cxx119money_getIwSt19istreambuf_iteratorIwSt11char_traitsIwEEEE V
_ZTVNSt7__cxx119money_putIcSt19ostreambuf_iteratorIcSt11char_traitsIcEEEE V
_ZTVNSt7__cxx119money_putIwSt19ostreambuf_iteratorIwSt11char_traitsIwEEEE V
_ZTVNSt8ios_base7failureB5cxx11E V
_ZTVNSt8ios_base7failureE V
_ZTVSd V
_ZTVSi V
_ZTVSo V
_ZTVSt10bad_typeid V
_ZTVSt10moneypunctIcLb0EE V
_ZTVSt10moneypunctIcLb1EE V
_ZTVSt10moneypunctIwLb0EE V
_ZTVSt10moneypunctIwLb1EE V
_ZTVSt11__timepunctIcE V
_ZTVSt11__timepunctIwE V
_ZTVSt11logic_error V
_ZTVSt11range_error V
_ZTVSt12ctype_bynameIcE V
_ZTVSt12ctype_bynameIwE V
_ZTVSt12domain_error V
_ZTVSt12length_error V
_ZTVSt12out_of_range V
_ZTVSt12system_error V
_ZTVSt13__ios_failure V
_ZTVSt13bad_exception V
_ZTVSt13basic_filebufIcSt11char_traitsIcEE V
_ZTVSt13basic_filebufIwSt11char_traitsIwEE V
_ZTVSt13basic_fstreamIcSt11char_traitsIcEE V
_ZTVSt13basic_fstreamIwSt11char_traitsIwEE V
_ZTVSt13basic_istreamIwSt11char_traitsIwEE V
_ZTVSt13basic_ostreamIwSt11char_traitsIwEE V
_ZTVSt13runtime_error V
_ZTVSt14basic_ifstreamIcSt11char_traitsIcEE V
_ZTVSt14basic_ifstreamIwSt11char_traitsIwEE V
_ZTVSt14basic_iostreamIwSt11char_traitsIwEE V
_ZTVSt14basic_ofstreamIcSt11char_traitsIcEE V
_ZTVSt14basic_ofstreamIwSt11char_traitsIwEE V
_ZTVSt14codecvt_bynameIcc11__mbstate_tE V
_ZTVSt14codecvt_bynameIwc11__mbstate_tE V
_ZTVSt14collate_bynameIcE V
_ZTVSt14collate_bynameIwE V
_ZTVSt14overflow_error V
_ZTVSt15basic_streambufIcSt11char_traitsIcEE V
_ZTVSt15basic_streambufIwSt11char_traitsIwEE V
_ZTVSt15messages_bynameIcE V
_ZTVSt15messages_bynameIwE V
_ZTVSt15numpunct_bynameIcE V
_ZTVSt15numpunct_bynameIwE V
_ZTVSt15time_get_bynameIcSt19istreambuf_iteratorIcSt11char_traitsIcEEE V
_ZTVSt15time_get_bynameIwSt19istreambuf_iteratorIwSt11char_traitsIwEEE V
_ZTVSt15time_put_bynameIcSt19ostreambuf_iteratorIcSt11char_traitsIcEEE V
_ZTVSt15time_put_bynameIwSt19ostreambuf_iteratorIwSt11char_traitsIwEEE V
_ZTVSt15underflow_error V
_ZTVSt16__numpunct_cacheIcE V
_ZTVSt16__numpunct_cacheIwE V
_ZTVSt16invalid_argument V
_ZTVSt17__timepunct_cacheIcE V
_ZTVSt17__timepunct_cacheIwE V
_ZTVSt17bad_function_call V
_ZTVSt17moneypunct_bynameIcLb0EE V
_ZTVSt17moneypunct_bynameIcLb1EE V
_ZTVSt17moneypunct_bynameIwLb0EE V
_ZTVSt17moneypunct_bynameIwLb1EE V
_ZTVSt18__moneypunct_cacheIcLb0EE V
_ZTVSt18__moneypunct_cacheIcLb1EE V
_ZTVSt18__moneypunct_cacheIwLb0EE V
_ZTVSt18__moneypunct_cacheIwLb1EE V
_ZTVSt19__codecvt_utf8_baseIDiE V
_ZTVSt19__codecvt_utf8_baseIDsE V
_ZTVSt19__codecvt_utf8_baseIwE V
_ZTVSt19__iosfail_type_info V
_ZTVSt20__codecvt_utf16_baseIDiE V
_ZTVSt20__codecvt_utf16_baseIDsE V
_ZTVSt20__codecvt_utf16_baseIwE V
_ZTVSt20bad_array_new_length V
_ZTVSt21__ctype_abstract_baseIcE V
_ZTVSt21__ctype_abstract_baseIwE V
_ZTVSt23__codecvt_abstract_baseIDiDu11__mbstate_tE V
_ZTVSt23__codecvt_abstract_baseIDic11__mbstate_tE V
_ZTVSt23__codecvt_abstract_baseIDsDu11__mbstate_tE V
_ZTVSt23__codecvt_abstract_baseIDsc11__mbstate_tE V
_ZTVSt23__codecvt_abstract_baseIcc11__mbstate_tE V
_ZTVSt23__codecvt_abstract_baseIwc11__mbstate_tE V
_ZTVSt25__codecvt_utf8_utf16_baseIDiE V
_ZTVSt25__codecvt_utf8_utf16_baseIDsE V
_ZTVSt25__codecvt_utf8_utf16_baseIwE V
_ZTVSt5ctypeIcE V
_ZTVSt5ctypeIwE V
_ZTVSt7codecvtIDiDu11__mbstate_tE V
_ZTVSt7codecvtIDic11__mbstate_tE V
_ZTVSt7codecvtIDsDu11__mbstate_tE V
_ZTVSt7codecvtIDsc11__mbstate_tE V
_ZTVSt7codecvtIcc11__mbstate_tE V
_ZTVSt7codecvtIwc11__mbstate_tE V
_ZTVSt7collateIcE V
_ZTVSt7collateIwE V
_ZTVSt7num_getIcSt19istreambuf_iteratorIcSt11char_traitsIcEEE V
_ZTVSt7num_getIwSt19istreambuf_iteratorIwSt11char_traitsIwEEE V
_ZTVSt7num_putIcSt19ostreambuf_iteratorIcSt11char_traitsIcEEE V
_ZTVSt7num_putIwSt19ostreambuf_iteratorIwSt11char_traitsIwEEE V
_ZTVSt8bad_cast V
_ZTVSt8ios_base V
_ZTVSt8messagesIcE V
_ZTVSt8messagesIwE V
_ZTVSt8numpunctIcE V
_ZTVSt8numpunctIwE V
_ZTVSt8time_getIcSt19istreambuf_iteratorIcSt11char_traitsIcEEE V
_ZTVSt8time_getIwSt19istreambuf_iteratorIwSt11char_traitsIwEEE V
_ZTVSt8time_putIcSt19ostreambuf_iteratorIcSt11char_traitsIcEEE V
_ZTVSt8time_putIwSt19ostreambuf_iteratorIwSt11char_traitsIwEEE V
_ZTVSt9bad_alloc V
_ZTVSt9basic_iosIcSt11char_traitsIcEE V
_ZTVSt9basic_iosIwSt11char_traitsIwEE V
_ZTVSt9exception V
_ZTVSt9money_getIcSt19istreambuf_iteratorIcSt11char_traitsIcEEE V
_ZTVSt9money_getIwSt19istreambuf_iteratorIwSt11char_traitsIwEEE V
_ZTVSt9money_putIcSt19ostreambuf_iteratorIcSt11char_traitsIcEEE V
_ZTVSt9money_putIwSt19ostreambuf_iteratorIwSt11char_traitsIwEEE V
_ZTVSt9type_info V
_ZThn16_NSdD0Ev W
_ZThn16_NSdD1Ev W
_ZThn16_NSt13basic_fstreamIcSt11char_traitsIcEED0Ev W
_ZThn16_NSt13basic_fstreamIcSt11char_traitsIcEED1Ev W
_ZThn16_NSt13basic_fstreamIwSt11char_traitsIwEED0Ev W
_ZThn16_NSt13basic_fstreamIwSt11char_traitsIwEED1Ev W
_ZThn16_NSt14basic_iostreamIwSt11char_traitsIwEED0Ev W
_ZThn16_NSt14basic_iostreamIwSt11char_traitsIwEED1Ev W
_ZThn16_NSt7__cxx1118basic_stringstreamIcSt11char_traitsIcESaIcEED0Ev W
_ZThn16_NSt7__cxx1118basic_stringstreamIcSt11char_traitsIcESaIcEED1Ev W
_ZThn16_NSt7__cxx1118basic_stringstreamIwSt11char_traitsIwESaIwEED0Ev W
_ZThn16_NSt7__cxx1118basic_stringstreamIwSt11char_traitsIwESaIwEED1Ev W
_ZTv0_n24_NSdD0Ev W
_ZTv0_n24_NSdD1Ev W
_ZTv0_n24_NSiD0Ev W
_ZTv0_n24_NSiD1Ev W
_ZTv0_n24_NSoD0Ev W
_ZTv0_n24_NSoD1Ev W
_ZTv0_n24_NSt13basic_fstreamIcSt11char_traitsIcEED0Ev W
_ZTv0_n24_NSt13basic_fstreamIcSt11char_traitsIcEED1Ev W
_ZTv0_n24_NSt13basic_fstreamIwSt11char_traitsIwEED0Ev W
_ZTv0_n24_NSt13basic_fstreamIwSt11char_traitsIwEED1Ev W
_ZTv0_n24_NSt13basic_istreamIwSt11char_traitsIwEED0Ev W
_ZTv0_n24_NSt13basic_istreamIwSt11char_traitsIwEED1Ev W
_ZTv0_n24_NSt13basic_ostreamIwSt11char_traitsIwEED0Ev W
_ZTv0_n24_NSt13basic_ostreamIwSt11char_traitsIwEED1Ev W
_ZTv0_n24_NSt14basic_ifstreamIcSt11char_traitsIcEED0Ev W
_ZTv0_n24_NSt14basic_ifstreamIcSt11char_traitsIcEED1Ev W
_ZTv0_n24_NSt14basic_ifstreamIwSt11char_traitsIwEED0Ev W
_ZTv0_n24_NSt14basic_ifstreamIwSt11char_traitsIwEED1Ev W
_ZTv0_n24_NSt14basic_iostreamIwSt11char_traitsIwEED0Ev W
_ZTv0_n24_NSt14basic_iostreamIwSt11char_traitsIwEED1Ev W
_ZTv0_n24_NSt14basic_ofstreamIcSt11char_traitsIcEED0Ev W
_ZTv0_n24_NSt14basic_ofstreamIcSt11char_traitsIcEED1Ev W
_ZTv0_n24_NSt14basic_ofstreamIwSt11char_traitsIwEED0Ev W
_ZTv0_n24_NSt14basic_ofstreamIwSt11char_traitsIwEED1Ev W
_ZTv0_n24_NSt7__cxx1118basic_stringstreamIcSt11char_traitsIcESaIcEED0Ev W
_ZTv0_n24_NSt7__cxx1118basic_stringstreamIcSt11char_traitsIcESaIcEED1Ev W
_ZTv0_n24_NSt7__cxx1118basic_stringstreamIwSt11char_traitsIwESaIwEED0Ev W
_ZTv0_n24_NSt7__cxx1118basic_stringstreamIwSt11char_traitsIwESaIwEED1Ev W
_ZTv0_n24_NSt7__cxx1119basic_istringstreamIcSt11char_traitsIcESaIcEED0Ev W
_ZTv0_n24_NSt7__cxx1119basic_istringstreamIcSt11char_traitsIcESaIcEED1Ev W
_ZTv0_n24_NSt7__cxx1119basic_istringstreamIwSt11char_traitsIwESaIwEED0Ev W
_ZTv0_n24_NSt7__cxx1119basic_istringstreamIwSt11char_traitsIwESaIwEED1Ev W
_ZTv0_n24_NSt7__cxx1119basic_ostringstreamIcSt11char_traitsIcESaIcEED0Ev W
_ZTv0_n24_NSt7__cxx1119basic_ostringstreamIcSt11char_traitsIcESaIcEED1Ev W
_ZTv0_n24_NSt7__cxx1119basic_ostringstreamIwSt11char_traitsIwESaIwEED0Ev W
_ZTv0_n24_NSt7__cxx1119basic_ostringstreamIwSt11char_traitsIwESaIwEED1Ev W
_ZZNSt13basic_filebufIcSt11char_traitsIcEE5closeEvEN14__close_sentryD1Ev W
_ZZNSt13basic_filebufIcSt11char_traitsIcEE5closeEvEN14__close_sentryD2Ev W
_ZZNSt13basic_filebufIwSt11char_traitsIwEE5closeEvEN14__close_sentryD1Ev W
_ZZNSt13basic_filebufIwSt11char_traitsIwEE5closeEvEN14__close_sentryD2Ev W
_ZdaPv T
_ZdlPv T
_ZdlPvm T
_Znam T
_ZnamRKSt9nothrow_t T
_Znwm T
__cxa_allocate_dependent_exception T
__cxa_allocate_exception T
__cxa_bad_cast T
__cxa_bad_typeid T
__cxa_begin_catch T
__cxa_call_terminate T
__cxa_call_unexpected T
__cxa_current_exception_type T
__cxa_deleted_virtual T
__cxa_demangle T
__cxa_end_catch T
__cxa_free_dependent_exception T
__cxa_free_exception T
__cxa_get_exception_ptr T
__cxa_get_globals T
__cxa_get_globals_fast T
__cxa_guard_abort T
__cxa_guard_acquire T
__cxa_guard_release T
__cxa_init_primary_exception T
__cxa_pure_virtual T
__cxa_rethrow T
__cxa_throw T
__cxa_throw_bad_array_new_length T
__dynamic_cast T
__gcclibcxx_demangle_callback T
__gxx_personality_v0 T
